
ygos.elf:     file format elf32-littlearm


Disassembly of section .text:

60000000 <__text_start>:
60000000:	e59ff018 	ldr	pc, [pc, #24]	; 60000020 <_vector_reset>
60000004:	e59ff018 	ldr	pc, [pc, #24]	; 60000024 <_vector_undef>
60000008:	e59ff018 	ldr	pc, [pc, #24]	; 60000028 <_vector_swi>
6000000c:	e59ff018 	ldr	pc, [pc, #24]	; 6000002c <_vector_pabt>
60000010:	e59ff018 	ldr	pc, [pc, #24]	; 60000030 <_vector_dabt>
60000014:	e59ff018 	ldr	pc, [pc, #24]	; 60000034 <_vector_resv>
60000018:	e59ff018 	ldr	pc, [pc, #24]	; 60000038 <_vector_irq>
6000001c:	e59ff018 	ldr	pc, [pc, #24]	; 6000003c <_vector_fiq>

60000020 <_vector_reset>:
60000020:	60000040 	andvs	r0, r0, r0, asr #32

60000024 <_vector_undef>:
60000024:	60001280 	andvs	r1, r0, r0, lsl #5

60000028 <_vector_swi>:
60000028:	60001260 	andvs	r1, r0, r0, ror #4

6000002c <_vector_pabt>:
6000002c:	600012a0 	andvs	r1, r0, r0, lsr #5

60000030 <_vector_dabt>:
60000030:	600012c0 	andvs	r1, r0, r0, asr #5

60000034 <_vector_resv>:
60000034:	600012e0 	andvs	r1, r0, r0, ror #5

60000038 <_vector_irq>:
60000038:	60001260 	andvs	r1, r0, r0, ror #4

6000003c <_vector_fiq>:
6000003c:	60001260 	andvs	r1, r0, r0, ror #4

60000040 <_reset>:
60000040:	e10f0000 	mrs	r0, CPSR
60000044:	e3c0001f 	bic	r0, r0, #31
60000048:	e3800013 	orr	r0, r0, #19
6000004c:	e121f000 	msr	CPSR_c, r0
60000050:	eb000011 	bl	6000009c <stack_setup>
60000054:	e3a00000 	mov	r0, #0
60000058:	e59f107c 	ldr	r1, [pc, #124]	; 600000dc <stack_setup+0x40>
6000005c:	e59f207c 	ldr	r2, [pc, #124]	; 600000e0 <stack_setup+0x44>

60000060 <bss_loop>:
60000060:	e1510002 	cmp	r1, r2
60000064:	34810004 	strcc	r0, [r1], #4
60000068:	3afffffc 	bcc	60000060 <bss_loop>
6000006c:	e59f0070 	ldr	r0, [pc, #112]	; 600000e4 <stack_setup+0x48>
60000070:	e59f1070 	ldr	r1, [pc, #112]	; 600000e8 <stack_setup+0x4c>

60000074 <ctor_loop>:
60000074:	e1500001 	cmp	r0, r1
60000078:	0a000005 	beq	60000094 <ctor_end>
6000007c:	e4902004 	ldr	r2, [r0], #4
60000080:	e92d0003 	push	{r0, r1}
60000084:	e1a0e00f 	mov	lr, pc
60000088:	e12fff12 	bx	r2
6000008c:	e8bd0003 	pop	{r0, r1}
60000090:	eafffff7 	b	60000074 <ctor_loop>

60000094 <ctor_end>:
60000094:	e51ff004 	ldr	pc, [pc, #-4]	; 60000098 <_startup>

60000098 <_startup>:
60000098:	600011e8 	andvs	r1, r0, r8, ror #3

6000009c <stack_setup>:
6000009c:	e59f0048 	ldr	r0, [pc, #72]	; 600000ec <stack_setup+0x50>
600000a0:	e1a0d000 	mov	sp, r0
600000a4:	e321f0db 	msr	CPSR_c, #219	; 0xdb
600000a8:	e1a0d000 	mov	sp, r0
600000ac:	e2400000 	sub	r0, r0, #0
600000b0:	e321f0d7 	msr	CPSR_c, #215	; 0xd7
600000b4:	e1a0d000 	mov	sp, r0
600000b8:	e2400000 	sub	r0, r0, #0
600000bc:	e321f0d1 	msr	CPSR_c, #209	; 0xd1
600000c0:	e1a0d000 	mov	sp, r0
600000c4:	e2400000 	sub	r0, r0, #0
600000c8:	e321f0d2 	msr	CPSR_c, #210	; 0xd2
600000cc:	e1a0d000 	mov	sp, r0
600000d0:	e2400b02 	sub	r0, r0, #2048	; 0x800
600000d4:	e321f0d3 	msr	CPSR_c, #211	; 0xd3
600000d8:	e12fff1e 	bx	lr
600000dc:	60002054 	andvs	r2, r0, r4, asr r0
600000e0:	600030a8 	andvs	r3, r0, r8, lsr #1
600000e4:	60001454 	andvs	r1, r0, r4, asr r4
600000e8:	60001454 	andvs	r1, r0, r4, asr r4
600000ec:	60002054 	andvs	r2, r0, r4, asr r0

600000f0 <ygos_interrupt_disable>:
600000f0:	e10f0000 	mrs	r0, CPSR
600000f4:	f10c0080 	cpsid	i
600000f8:	e12fff1e 	bx	lr

600000fc <ygos_interrupt_enable>:
600000fc:	e129f000 	msr	CPSR_fc, r0
60000100:	e12fff1e 	bx	lr

60000104 <ygos_start_high_ready>:
60000104:	e59f0008 	ldr	r0, [pc, #8]	; 60000114 <ygos_start_high_ready+0x10>
60000108:	e3b01001 	movs	r1, #1
6000010c:	e5c01000 	strb	r1, [r0]
60000110:	eb000485 	bl	6000132c <context_switch>
60000114:	60002054 	andvs	r2, r0, r4, asr r0

60000118 <ygos_task_stack_init>:
60000118:	e52db004 	push	{fp}		; (str fp, [sp, #-4]!)
6000011c:	e28db000 	add	fp, sp, #0
60000120:	e24dd01c 	sub	sp, sp, #28
60000124:	e50b0010 	str	r0, [fp, #-16]
60000128:	e50b1014 	str	r1, [fp, #-20]	; 0xffffffec
6000012c:	e50b2018 	str	r2, [fp, #-24]	; 0xffffffe8
60000130:	e14b31ba 	strh	r3, [fp, #-26]	; 0xffffffe6
60000134:	e51b3018 	ldr	r3, [fp, #-24]	; 0xffffffe8
60000138:	e50b3008 	str	r3, [fp, #-8]
6000013c:	e51b2010 	ldr	r2, [fp, #-16]
60000140:	e51b3008 	ldr	r3, [fp, #-8]
60000144:	e5832000 	str	r2, [r3]
60000148:	e51b3008 	ldr	r3, [fp, #-8]
6000014c:	e2433004 	sub	r3, r3, #4
60000150:	e50b3008 	str	r3, [fp, #-8]
60000154:	e51b3008 	ldr	r3, [fp, #-8]
60000158:	e3a02000 	mov	r2, #0
6000015c:	e5832000 	str	r2, [r3]
60000160:	e51b3008 	ldr	r3, [fp, #-8]
60000164:	e2433004 	sub	r3, r3, #4
60000168:	e50b3008 	str	r3, [fp, #-8]
6000016c:	e51b3008 	ldr	r3, [fp, #-8]
60000170:	e3a02000 	mov	r2, #0
60000174:	e5832000 	str	r2, [r3]
60000178:	e51b3008 	ldr	r3, [fp, #-8]
6000017c:	e2433004 	sub	r3, r3, #4
60000180:	e50b3008 	str	r3, [fp, #-8]
60000184:	e51b3008 	ldr	r3, [fp, #-8]
60000188:	e3a02000 	mov	r2, #0
6000018c:	e5832000 	str	r2, [r3]
60000190:	e51b3008 	ldr	r3, [fp, #-8]
60000194:	e2433004 	sub	r3, r3, #4
60000198:	e50b3008 	str	r3, [fp, #-8]
6000019c:	e51b3008 	ldr	r3, [fp, #-8]
600001a0:	e3a02000 	mov	r2, #0
600001a4:	e5832000 	str	r2, [r3]
600001a8:	e51b3008 	ldr	r3, [fp, #-8]
600001ac:	e2433004 	sub	r3, r3, #4
600001b0:	e50b3008 	str	r3, [fp, #-8]
600001b4:	e51b3008 	ldr	r3, [fp, #-8]
600001b8:	e3a02000 	mov	r2, #0
600001bc:	e5832000 	str	r2, [r3]
600001c0:	e51b3008 	ldr	r3, [fp, #-8]
600001c4:	e2433004 	sub	r3, r3, #4
600001c8:	e50b3008 	str	r3, [fp, #-8]
600001cc:	e51b3008 	ldr	r3, [fp, #-8]
600001d0:	e3a02000 	mov	r2, #0
600001d4:	e5832000 	str	r2, [r3]
600001d8:	e51b3008 	ldr	r3, [fp, #-8]
600001dc:	e2433004 	sub	r3, r3, #4
600001e0:	e50b3008 	str	r3, [fp, #-8]
600001e4:	e51b3008 	ldr	r3, [fp, #-8]
600001e8:	e3a02000 	mov	r2, #0
600001ec:	e5832000 	str	r2, [r3]
600001f0:	e51b3008 	ldr	r3, [fp, #-8]
600001f4:	e2433004 	sub	r3, r3, #4
600001f8:	e50b3008 	str	r3, [fp, #-8]
600001fc:	e51b3008 	ldr	r3, [fp, #-8]
60000200:	e3a02000 	mov	r2, #0
60000204:	e5832000 	str	r2, [r3]
60000208:	e51b3008 	ldr	r3, [fp, #-8]
6000020c:	e2433004 	sub	r3, r3, #4
60000210:	e50b3008 	str	r3, [fp, #-8]
60000214:	e51b3008 	ldr	r3, [fp, #-8]
60000218:	e3a02000 	mov	r2, #0
6000021c:	e5832000 	str	r2, [r3]
60000220:	e51b3008 	ldr	r3, [fp, #-8]
60000224:	e2433004 	sub	r3, r3, #4
60000228:	e50b3008 	str	r3, [fp, #-8]
6000022c:	e51b3008 	ldr	r3, [fp, #-8]
60000230:	e3a02000 	mov	r2, #0
60000234:	e5832000 	str	r2, [r3]
60000238:	e51b3008 	ldr	r3, [fp, #-8]
6000023c:	e2433004 	sub	r3, r3, #4
60000240:	e50b3008 	str	r3, [fp, #-8]
60000244:	e51b3008 	ldr	r3, [fp, #-8]
60000248:	e3a02000 	mov	r2, #0
6000024c:	e5832000 	str	r2, [r3]
60000250:	e51b3008 	ldr	r3, [fp, #-8]
60000254:	e2433004 	sub	r3, r3, #4
60000258:	e50b3008 	str	r3, [fp, #-8]
6000025c:	e51b3008 	ldr	r3, [fp, #-8]
60000260:	e3a02000 	mov	r2, #0
60000264:	e5832000 	str	r2, [r3]
60000268:	e51b3008 	ldr	r3, [fp, #-8]
6000026c:	e2433004 	sub	r3, r3, #4
60000270:	e50b3008 	str	r3, [fp, #-8]
60000274:	e51b3008 	ldr	r3, [fp, #-8]
60000278:	e3a02000 	mov	r2, #0
6000027c:	e5832000 	str	r2, [r3]
60000280:	e51b3008 	ldr	r3, [fp, #-8]
60000284:	e2433004 	sub	r3, r3, #4
60000288:	e50b3008 	str	r3, [fp, #-8]
6000028c:	e51b2014 	ldr	r2, [fp, #-20]	; 0xffffffec
60000290:	e51b3008 	ldr	r3, [fp, #-8]
60000294:	e5832000 	str	r2, [r3]
60000298:	e51b3010 	ldr	r3, [fp, #-16]
6000029c:	e2033001 	and	r3, r3, #1
600002a0:	e3530000 	cmp	r3, #0
600002a4:	0a000006 	beq	600002c4 <ygos_task_stack_init+0x1ac>
600002a8:	e51b3008 	ldr	r3, [fp, #-8]
600002ac:	e2433004 	sub	r3, r3, #4
600002b0:	e50b3008 	str	r3, [fp, #-8]
600002b4:	e51b3008 	ldr	r3, [fp, #-8]
600002b8:	e3a02033 	mov	r2, #51	; 0x33
600002bc:	e5832000 	str	r2, [r3]
600002c0:	ea000005 	b	600002dc <ygos_task_stack_init+0x1c4>
600002c4:	e51b3008 	ldr	r3, [fp, #-8]
600002c8:	e2433004 	sub	r3, r3, #4
600002cc:	e50b3008 	str	r3, [fp, #-8]
600002d0:	e51b3008 	ldr	r3, [fp, #-8]
600002d4:	e3a02013 	mov	r2, #19
600002d8:	e5832000 	str	r2, [r3]
600002dc:	e51b3008 	ldr	r3, [fp, #-8]
600002e0:	e1a00003 	mov	r0, r3
600002e4:	e24bd000 	sub	sp, fp, #0
600002e8:	e49db004 	pop	{fp}		; (ldr fp, [sp], #4)
600002ec:	e12fff1e 	bx	lr

600002f0 <INIT_LIST_HEAD>:
600002f0:	e52db004 	push	{fp}		; (str fp, [sp, #-4]!)
600002f4:	e28db000 	add	fp, sp, #0
600002f8:	e24dd00c 	sub	sp, sp, #12
600002fc:	e50b0008 	str	r0, [fp, #-8]
60000300:	e51b3008 	ldr	r3, [fp, #-8]
60000304:	e51b2008 	ldr	r2, [fp, #-8]
60000308:	e5832000 	str	r2, [r3]
6000030c:	e51b3008 	ldr	r3, [fp, #-8]
60000310:	e51b2008 	ldr	r2, [fp, #-8]
60000314:	e5832004 	str	r2, [r3, #4]
60000318:	e1a00000 	nop			; (mov r0, r0)
6000031c:	e24bd000 	sub	sp, fp, #0
60000320:	e49db004 	pop	{fp}		; (ldr fp, [sp], #4)
60000324:	e12fff1e 	bx	lr

60000328 <list_empty>:
60000328:	e52db004 	push	{fp}		; (str fp, [sp, #-4]!)
6000032c:	e28db000 	add	fp, sp, #0
60000330:	e24dd00c 	sub	sp, sp, #12
60000334:	e50b0008 	str	r0, [fp, #-8]
60000338:	e51b3008 	ldr	r3, [fp, #-8]
6000033c:	e5932000 	ldr	r2, [r3]
60000340:	e51b3008 	ldr	r3, [fp, #-8]
60000344:	e1520003 	cmp	r2, r3
60000348:	03a03001 	moveq	r3, #1
6000034c:	13a03000 	movne	r3, #0
60000350:	e6ef3073 	uxtb	r3, r3
60000354:	e1a00003 	mov	r0, r3
60000358:	e24bd000 	sub	sp, fp, #0
6000035c:	e49db004 	pop	{fp}		; (ldr fp, [sp], #4)
60000360:	e12fff1e 	bx	lr

60000364 <__list_add>:
60000364:	e52db004 	push	{fp}		; (str fp, [sp, #-4]!)
60000368:	e28db000 	add	fp, sp, #0
6000036c:	e24dd014 	sub	sp, sp, #20
60000370:	e50b0008 	str	r0, [fp, #-8]
60000374:	e50b100c 	str	r1, [fp, #-12]
60000378:	e50b2010 	str	r2, [fp, #-16]
6000037c:	e51b3010 	ldr	r3, [fp, #-16]
60000380:	e51b2008 	ldr	r2, [fp, #-8]
60000384:	e5832004 	str	r2, [r3, #4]
60000388:	e51b3008 	ldr	r3, [fp, #-8]
6000038c:	e51b2010 	ldr	r2, [fp, #-16]
60000390:	e5832000 	str	r2, [r3]
60000394:	e51b3008 	ldr	r3, [fp, #-8]
60000398:	e51b200c 	ldr	r2, [fp, #-12]
6000039c:	e5832004 	str	r2, [r3, #4]
600003a0:	e51b300c 	ldr	r3, [fp, #-12]
600003a4:	e51b2008 	ldr	r2, [fp, #-8]
600003a8:	e5832000 	str	r2, [r3]
600003ac:	e1a00000 	nop			; (mov r0, r0)
600003b0:	e24bd000 	sub	sp, fp, #0
600003b4:	e49db004 	pop	{fp}		; (ldr fp, [sp], #4)
600003b8:	e12fff1e 	bx	lr

600003bc <list_add_tail>:
600003bc:	e92d4800 	push	{fp, lr}
600003c0:	e28db004 	add	fp, sp, #4
600003c4:	e24dd008 	sub	sp, sp, #8
600003c8:	e50b0008 	str	r0, [fp, #-8]
600003cc:	e50b100c 	str	r1, [fp, #-12]
600003d0:	e51b300c 	ldr	r3, [fp, #-12]
600003d4:	e5933004 	ldr	r3, [r3, #4]
600003d8:	e51b200c 	ldr	r2, [fp, #-12]
600003dc:	e1a01003 	mov	r1, r3
600003e0:	e51b0008 	ldr	r0, [fp, #-8]
600003e4:	ebffffde 	bl	60000364 <__list_add>
600003e8:	e1a00000 	nop			; (mov r0, r0)
600003ec:	e24bd004 	sub	sp, fp, #4
600003f0:	e8bd8800 	pop	{fp, pc}

600003f4 <__list_del>:
600003f4:	e52db004 	push	{fp}		; (str fp, [sp, #-4]!)
600003f8:	e28db000 	add	fp, sp, #0
600003fc:	e24dd00c 	sub	sp, sp, #12
60000400:	e50b0008 	str	r0, [fp, #-8]
60000404:	e50b100c 	str	r1, [fp, #-12]
60000408:	e51b300c 	ldr	r3, [fp, #-12]
6000040c:	e51b2008 	ldr	r2, [fp, #-8]
60000410:	e5832004 	str	r2, [r3, #4]
60000414:	e51b3008 	ldr	r3, [fp, #-8]
60000418:	e51b200c 	ldr	r2, [fp, #-12]
6000041c:	e5832000 	str	r2, [r3]
60000420:	e1a00000 	nop			; (mov r0, r0)
60000424:	e24bd000 	sub	sp, fp, #0
60000428:	e49db004 	pop	{fp}		; (ldr fp, [sp], #4)
6000042c:	e12fff1e 	bx	lr

60000430 <list_del>:
60000430:	e92d4800 	push	{fp, lr}
60000434:	e28db004 	add	fp, sp, #4
60000438:	e24dd008 	sub	sp, sp, #8
6000043c:	e50b0008 	str	r0, [fp, #-8]
60000440:	e51b3008 	ldr	r3, [fp, #-8]
60000444:	e5932004 	ldr	r2, [r3, #4]
60000448:	e51b3008 	ldr	r3, [fp, #-8]
6000044c:	e5933000 	ldr	r3, [r3]
60000450:	e1a01003 	mov	r1, r3
60000454:	e1a00002 	mov	r0, r2
60000458:	ebffffe5 	bl	600003f4 <__list_del>
6000045c:	e51b2008 	ldr	r2, [fp, #-8]
60000460:	e3a03c01 	mov	r3, #256	; 0x100
60000464:	e3403010 	movt	r3, #16
60000468:	e5823000 	str	r3, [r2]
6000046c:	e51b2008 	ldr	r2, [fp, #-8]
60000470:	e3a03c02 	mov	r3, #512	; 0x200
60000474:	e3403020 	movt	r3, #32
60000478:	e5823004 	str	r3, [r2, #4]
6000047c:	e1a00000 	nop			; (mov r0, r0)
60000480:	e24bd004 	sub	sp, fp, #4
60000484:	e8bd8800 	pop	{fp, pc}

60000488 <list_del_first>:
60000488:	e92d4800 	push	{fp, lr}
6000048c:	e28db004 	add	fp, sp, #4
60000490:	e24dd008 	sub	sp, sp, #8
60000494:	e50b0008 	str	r0, [fp, #-8]
60000498:	e51b0008 	ldr	r0, [fp, #-8]
6000049c:	ebffffa1 	bl	60000328 <list_empty>
600004a0:	e1a03000 	mov	r3, r0
600004a4:	e3530000 	cmp	r3, #0
600004a8:	1a000003 	bne	600004bc <list_del_first+0x34>
600004ac:	e51b3008 	ldr	r3, [fp, #-8]
600004b0:	e5933000 	ldr	r3, [r3]
600004b4:	e1a00003 	mov	r0, r3
600004b8:	ebffffdc 	bl	60000430 <list_del>
600004bc:	e1a00000 	nop			; (mov r0, r0)
600004c0:	e24bd004 	sub	sp, fp, #4
600004c4:	e8bd8800 	pop	{fp, pc}

600004c8 <list_get_first>:
600004c8:	e92d4800 	push	{fp, lr}
600004cc:	e28db004 	add	fp, sp, #4
600004d0:	e24dd008 	sub	sp, sp, #8
600004d4:	e50b0008 	str	r0, [fp, #-8]
600004d8:	e51b0008 	ldr	r0, [fp, #-8]
600004dc:	ebffff91 	bl	60000328 <list_empty>
600004e0:	e1a03000 	mov	r3, r0
600004e4:	e3530000 	cmp	r3, #0
600004e8:	1a000002 	bne	600004f8 <list_get_first+0x30>
600004ec:	e51b3008 	ldr	r3, [fp, #-8]
600004f0:	e5933000 	ldr	r3, [r3]
600004f4:	ea000000 	b	600004fc <list_get_first+0x34>
600004f8:	e3a03000 	mov	r3, #0
600004fc:	e1a00003 	mov	r0, r3
60000500:	e24bd004 	sub	sp, fp, #4
60000504:	e8bd8800 	pop	{fp, pc}

60000508 <ygos_tcb_create>:
60000508:	e92d4800 	push	{fp, lr}
6000050c:	e28db004 	add	fp, sp, #4
60000510:	e24dd020 	sub	sp, sp, #32
60000514:	e50b0018 	str	r0, [fp, #-24]	; 0xffffffe8
60000518:	e50b101c 	str	r1, [fp, #-28]	; 0xffffffe4
6000051c:	e50b2020 	str	r2, [fp, #-32]	; 0xffffffe0
60000520:	e50b3024 	str	r3, [fp, #-36]	; 0xffffffdc
60000524:	ebfffef1 	bl	600000f0 <ygos_interrupt_disable>
60000528:	e1a03000 	mov	r3, r0
6000052c:	e50b3008 	str	r3, [fp, #-8]
60000530:	e3020c88 	movw	r0, #11400	; 0x2c88
60000534:	e3460000 	movt	r0, #24576	; 0x6000
60000538:	ebffffe2 	bl	600004c8 <list_get_first>
6000053c:	e50b000c 	str	r0, [fp, #-12]
60000540:	e51b300c 	ldr	r3, [fp, #-12]
60000544:	e2433084 	sub	r3, r3, #132	; 0x84
60000548:	e50b3010 	str	r3, [fp, #-16]
6000054c:	e51b3010 	ldr	r3, [fp, #-16]
60000550:	e3530000 	cmp	r3, #0
60000554:	0a00001a 	beq	600005c4 <ygos_tcb_create+0xbc>
60000558:	e51b3018 	ldr	r3, [fp, #-24]	; 0xffffffe8
6000055c:	e6ef2073 	uxtb	r2, r3
60000560:	e51b3010 	ldr	r3, [fp, #-16]
60000564:	e5c3208c 	strb	r2, [r3, #140]	; 0x8c
60000568:	e3a03000 	mov	r3, #0
6000056c:	e51b2024 	ldr	r2, [fp, #-36]	; 0xffffffdc
60000570:	e3a01000 	mov	r1, #0
60000574:	e51b001c 	ldr	r0, [fp, #-28]	; 0xffffffe4
60000578:	ebfffee6 	bl	60000118 <ygos_task_stack_init>
6000057c:	e50b0014 	str	r0, [fp, #-20]	; 0xffffffec
60000580:	e51b3010 	ldr	r3, [fp, #-16]
60000584:	e51b2014 	ldr	r2, [fp, #-20]	; 0xffffffec
60000588:	e5832000 	str	r2, [r3]
6000058c:	e3023bf4 	movw	r3, #11252	; 0x2bf4
60000590:	e3463000 	movt	r3, #24576	; 0x6000
60000594:	e51b2018 	ldr	r2, [fp, #-24]	; 0xffffffe8
60000598:	e51b1010 	ldr	r1, [fp, #-16]
6000059c:	e7831102 	str	r1, [r3, r2, lsl #2]
600005a0:	e3020c88 	movw	r0, #11400	; 0x2c88
600005a4:	e3460000 	movt	r0, #24576	; 0x6000
600005a8:	ebffffb6 	bl	60000488 <list_del_first>
600005ac:	e3021c80 	movw	r1, #11392	; 0x2c80
600005b0:	e3461000 	movt	r1, #24576	; 0x6000
600005b4:	e51b000c 	ldr	r0, [fp, #-12]
600005b8:	ebffff7f 	bl	600003bc <list_add_tail>
600005bc:	e51b0018 	ldr	r0, [fp, #-24]	; 0xffffffe8
600005c0:	eb000025 	bl	6000065c <ygos_task_ready_add>
600005c4:	e51b0008 	ldr	r0, [fp, #-8]
600005c8:	ebfffecb 	bl	600000fc <ygos_interrupt_enable>
600005cc:	e1a00000 	nop			; (mov r0, r0)
600005d0:	e24bd004 	sub	sp, fp, #4
600005d4:	e8bd8800 	pop	{fp, pc}

600005d8 <ygos_tcb_list_init>:
600005d8:	e92d4800 	push	{fp, lr}
600005dc:	e28db004 	add	fp, sp, #4
600005e0:	e24dd008 	sub	sp, sp, #8
600005e4:	e3020c88 	movw	r0, #11400	; 0x2c88
600005e8:	e3460000 	movt	r0, #24576	; 0x6000
600005ec:	ebffff3f 	bl	600002f0 <INIT_LIST_HEAD>
600005f0:	e3a03000 	mov	r3, #0
600005f4:	e54b3005 	strb	r3, [fp, #-5]
600005f8:	ea00000e 	b	60000638 <ygos_tcb_list_init+0x60>
600005fc:	e55b3005 	ldrb	r3, [fp, #-5]
60000600:	e3a02098 	mov	r2, #152	; 0x98
60000604:	e0030392 	mul	r3, r2, r3
60000608:	e2832080 	add	r2, r3, #128	; 0x80
6000060c:	e3023270 	movw	r3, #8816	; 0x2270
60000610:	e3463000 	movt	r3, #24576	; 0x6000
60000614:	e0823003 	add	r3, r2, r3
60000618:	e2833004 	add	r3, r3, #4
6000061c:	e3021c88 	movw	r1, #11400	; 0x2c88
60000620:	e3461000 	movt	r1, #24576	; 0x6000
60000624:	e1a00003 	mov	r0, r3
60000628:	ebffff63 	bl	600003bc <list_add_tail>
6000062c:	e55b3005 	ldrb	r3, [fp, #-5]
60000630:	e2833001 	add	r3, r3, #1
60000634:	e54b3005 	strb	r3, [fp, #-5]
60000638:	e55b3005 	ldrb	r3, [fp, #-5]
6000063c:	e353000f 	cmp	r3, #15
60000640:	9affffed 	bls	600005fc <ygos_tcb_list_init+0x24>
60000644:	e3020c80 	movw	r0, #11392	; 0x2c80
60000648:	e3460000 	movt	r0, #24576	; 0x6000
6000064c:	ebffff27 	bl	600002f0 <INIT_LIST_HEAD>
60000650:	e1a00000 	nop			; (mov r0, r0)
60000654:	e24bd004 	sub	sp, fp, #4
60000658:	e8bd8800 	pop	{fp, pc}

6000065c <ygos_task_ready_add>:
6000065c:	e52db004 	push	{fp}		; (str fp, [sp, #-4]!)
60000660:	e28db000 	add	fp, sp, #0
60000664:	e24dd00c 	sub	sp, sp, #12
60000668:	e50b0008 	str	r0, [fp, #-8]
6000066c:	e3a02001 	mov	r2, #1
60000670:	e51b3008 	ldr	r3, [fp, #-8]
60000674:	e1a03312 	lsl	r3, r2, r3
60000678:	e1a02003 	mov	r2, r3
6000067c:	e3023058 	movw	r3, #8280	; 0x2058
60000680:	e3463000 	movt	r3, #24576	; 0x6000
60000684:	e5933000 	ldr	r3, [r3]
60000688:	e1822003 	orr	r2, r2, r3
6000068c:	e3023058 	movw	r3, #8280	; 0x2058
60000690:	e3463000 	movt	r3, #24576	; 0x6000
60000694:	e5832000 	str	r2, [r3]
60000698:	e1a00000 	nop			; (mov r0, r0)
6000069c:	e24bd000 	sub	sp, fp, #0
600006a0:	e49db004 	pop	{fp}		; (ldr fp, [sp], #4)
600006a4:	e12fff1e 	bx	lr

600006a8 <ygos_task_high_ready_get>:
600006a8:	e52db004 	push	{fp}		; (str fp, [sp, #-4]!)
600006ac:	e28db000 	add	fp, sp, #0
600006b0:	e3023058 	movw	r3, #8280	; 0x2058
600006b4:	e3463000 	movt	r3, #24576	; 0x6000
600006b8:	e5933000 	ldr	r3, [r3]
600006bc:	e6ef3073 	uxtb	r3, r3
600006c0:	e3530000 	cmp	r3, #0
600006c4:	0a000007 	beq	600006e8 <ygos_task_high_ready_get+0x40>
600006c8:	e3023058 	movw	r3, #8280	; 0x2058
600006cc:	e3463000 	movt	r3, #24576	; 0x6000
600006d0:	e5933000 	ldr	r3, [r3]
600006d4:	e6ef2073 	uxtb	r2, r3
600006d8:	e3013354 	movw	r3, #4948	; 0x1354
600006dc:	e3463000 	movt	r3, #24576	; 0x6000
600006e0:	e7d33002 	ldrb	r3, [r3, r2]
600006e4:	ea00002f 	b	600007a8 <ygos_task_high_ready_get+0x100>
600006e8:	e3023058 	movw	r3, #8280	; 0x2058
600006ec:	e3463000 	movt	r3, #24576	; 0x6000
600006f0:	e5933000 	ldr	r3, [r3]
600006f4:	e2033cff 	and	r3, r3, #65280	; 0xff00
600006f8:	e3530000 	cmp	r3, #0
600006fc:	0a000009 	beq	60000728 <ygos_task_high_ready_get+0x80>
60000700:	e3023058 	movw	r3, #8280	; 0x2058
60000704:	e3463000 	movt	r3, #24576	; 0x6000
60000708:	e5933000 	ldr	r3, [r3]
6000070c:	e1a03423 	lsr	r3, r3, #8
60000710:	e6ef2073 	uxtb	r2, r3
60000714:	e3013354 	movw	r3, #4948	; 0x1354
60000718:	e3463000 	movt	r3, #24576	; 0x6000
6000071c:	e7d33002 	ldrb	r3, [r3, r2]
60000720:	e2833008 	add	r3, r3, #8
60000724:	ea00001f 	b	600007a8 <ygos_task_high_ready_get+0x100>
60000728:	e3023058 	movw	r3, #8280	; 0x2058
6000072c:	e3463000 	movt	r3, #24576	; 0x6000
60000730:	e5933000 	ldr	r3, [r3]
60000734:	e20338ff 	and	r3, r3, #16711680	; 0xff0000
60000738:	e3530000 	cmp	r3, #0
6000073c:	0a000009 	beq	60000768 <ygos_task_high_ready_get+0xc0>
60000740:	e3023058 	movw	r3, #8280	; 0x2058
60000744:	e3463000 	movt	r3, #24576	; 0x6000
60000748:	e5933000 	ldr	r3, [r3]
6000074c:	e1a03823 	lsr	r3, r3, #16
60000750:	e6ef2073 	uxtb	r2, r3
60000754:	e3013354 	movw	r3, #4948	; 0x1354
60000758:	e3463000 	movt	r3, #24576	; 0x6000
6000075c:	e7d33002 	ldrb	r3, [r3, r2]
60000760:	e2833010 	add	r3, r3, #16
60000764:	ea00000f 	b	600007a8 <ygos_task_high_ready_get+0x100>
60000768:	e3023058 	movw	r3, #8280	; 0x2058
6000076c:	e3463000 	movt	r3, #24576	; 0x6000
60000770:	e5933000 	ldr	r3, [r3]
60000774:	e20334ff 	and	r3, r3, #-16777216	; 0xff000000
60000778:	e3530000 	cmp	r3, #0
6000077c:	0a000008 	beq	600007a4 <ygos_task_high_ready_get+0xfc>
60000780:	e3023058 	movw	r3, #8280	; 0x2058
60000784:	e3463000 	movt	r3, #24576	; 0x6000
60000788:	e5933000 	ldr	r3, [r3]
6000078c:	e1a02c23 	lsr	r2, r3, #24
60000790:	e3013354 	movw	r3, #4948	; 0x1354
60000794:	e3463000 	movt	r3, #24576	; 0x6000
60000798:	e7d33002 	ldrb	r3, [r3, r2]
6000079c:	e2833018 	add	r3, r3, #24
600007a0:	ea000000 	b	600007a8 <ygos_task_high_ready_get+0x100>
600007a4:	e3e03000 	mvn	r3, #0
600007a8:	e1a00003 	mov	r0, r3
600007ac:	e24bd000 	sub	sp, fp, #0
600007b0:	e49db004 	pop	{fp}		; (ldr fp, [sp], #4)
600007b4:	e12fff1e 	bx	lr

600007b8 <ygos_task_ready_delete>:
600007b8:	e52db004 	push	{fp}		; (str fp, [sp, #-4]!)
600007bc:	e28db000 	add	fp, sp, #0
600007c0:	e24dd00c 	sub	sp, sp, #12
600007c4:	e50b0008 	str	r0, [fp, #-8]
600007c8:	e3a02001 	mov	r2, #1
600007cc:	e51b3008 	ldr	r3, [fp, #-8]
600007d0:	e1a03312 	lsl	r3, r2, r3
600007d4:	e1e03003 	mvn	r3, r3
600007d8:	e1a02003 	mov	r2, r3
600007dc:	e3023058 	movw	r3, #8280	; 0x2058
600007e0:	e3463000 	movt	r3, #24576	; 0x6000
600007e4:	e5933000 	ldr	r3, [r3]
600007e8:	e0022003 	and	r2, r2, r3
600007ec:	e3023058 	movw	r3, #8280	; 0x2058
600007f0:	e3463000 	movt	r3, #24576	; 0x6000
600007f4:	e5832000 	str	r2, [r3]
600007f8:	e1a00000 	nop			; (mov r0, r0)
600007fc:	e24bd000 	sub	sp, fp, #0
60000800:	e49db004 	pop	{fp}		; (ldr fp, [sp], #4)
60000804:	e12fff1e 	bx	lr

60000808 <ygos_interrupt_enter>:
60000808:	e92d4800 	push	{fp, lr}
6000080c:	e28db004 	add	fp, sp, #4
60000810:	e24dd008 	sub	sp, sp, #8
60000814:	e3023054 	movw	r3, #8276	; 0x2054
60000818:	e3463000 	movt	r3, #24576	; 0x6000
6000081c:	e5d33000 	ldrb	r3, [r3]
60000820:	e3530000 	cmp	r3, #0
60000824:	0a00000c 	beq	6000085c <ygos_interrupt_enter+0x54>
60000828:	ebfffe30 	bl	600000f0 <ygos_interrupt_disable>
6000082c:	e1a03000 	mov	r3, r0
60000830:	e50b3008 	str	r3, [fp, #-8]
60000834:	e3023c7c 	movw	r3, #11388	; 0x2c7c
60000838:	e3463000 	movt	r3, #24576	; 0x6000
6000083c:	e5933000 	ldr	r3, [r3]
60000840:	e2832001 	add	r2, r3, #1
60000844:	e3023c7c 	movw	r3, #11388	; 0x2c7c
60000848:	e3463000 	movt	r3, #24576	; 0x6000
6000084c:	e5832000 	str	r2, [r3]
60000850:	e51b0008 	ldr	r0, [fp, #-8]
60000854:	ebfffe28 	bl	600000fc <ygos_interrupt_enable>
60000858:	ea000000 	b	60000860 <ygos_interrupt_enter+0x58>
6000085c:	e1a00000 	nop			; (mov r0, r0)
60000860:	e24bd004 	sub	sp, fp, #4
60000864:	e8bd8800 	pop	{fp, pc}

60000868 <ygos_interrupt_leave>:
60000868:	e92d4800 	push	{fp, lr}
6000086c:	e28db004 	add	fp, sp, #4
60000870:	e24dd008 	sub	sp, sp, #8
60000874:	e3023054 	movw	r3, #8276	; 0x2054
60000878:	e3463000 	movt	r3, #24576	; 0x6000
6000087c:	e5d33000 	ldrb	r3, [r3]
60000880:	e3530000 	cmp	r3, #0
60000884:	0a000012 	beq	600008d4 <ygos_interrupt_leave+0x6c>
60000888:	ebfffe18 	bl	600000f0 <ygos_interrupt_disable>
6000088c:	e1a03000 	mov	r3, r0
60000890:	e50b3008 	str	r3, [fp, #-8]
60000894:	e3023c7c 	movw	r3, #11388	; 0x2c7c
60000898:	e3463000 	movt	r3, #24576	; 0x6000
6000089c:	e5933000 	ldr	r3, [r3]
600008a0:	e2432001 	sub	r2, r3, #1
600008a4:	e3023c7c 	movw	r3, #11388	; 0x2c7c
600008a8:	e3463000 	movt	r3, #24576	; 0x6000
600008ac:	e5832000 	str	r2, [r3]
600008b0:	e3023c7c 	movw	r3, #11388	; 0x2c7c
600008b4:	e3463000 	movt	r3, #24576	; 0x6000
600008b8:	e5933000 	ldr	r3, [r3]
600008bc:	e3530000 	cmp	r3, #0
600008c0:	1a000000 	bne	600008c8 <ygos_interrupt_leave+0x60>
600008c4:	eb000017 	bl	60000928 <ygos_sche>
600008c8:	e51b0008 	ldr	r0, [fp, #-8]
600008cc:	ebfffe0a 	bl	600000fc <ygos_interrupt_enable>
600008d0:	ea000000 	b	600008d8 <ygos_interrupt_leave+0x70>
600008d4:	e1a00000 	nop			; (mov r0, r0)
600008d8:	e24bd004 	sub	sp, fp, #4
600008dc:	e8bd8800 	pop	{fp, pc}

600008e0 <ygos_sche_new>:
600008e0:	e92d4800 	push	{fp, lr}
600008e4:	e28db004 	add	fp, sp, #4
600008e8:	e24dd008 	sub	sp, sp, #8
600008ec:	e3a03000 	mov	r3, #0
600008f0:	e50b3008 	str	r3, [fp, #-8]
600008f4:	ebffff6b 	bl	600006a8 <ygos_task_high_ready_get>
600008f8:	e50b0008 	str	r0, [fp, #-8]
600008fc:	e51b3008 	ldr	r3, [fp, #-8]
60000900:	e3530000 	cmp	r3, #0
60000904:	ba000004 	blt	6000091c <ygos_sche_new+0x3c>
60000908:	e51b3008 	ldr	r3, [fp, #-8]
6000090c:	e6ef2073 	uxtb	r2, r3
60000910:	e3023c74 	movw	r3, #11380	; 0x2c74
60000914:	e3463000 	movt	r3, #24576	; 0x6000
60000918:	e5c32000 	strb	r2, [r3]
6000091c:	e1a00000 	nop			; (mov r0, r0)
60000920:	e24bd004 	sub	sp, fp, #4
60000924:	e8bd8800 	pop	{fp, pc}

60000928 <ygos_sche>:
60000928:	e92d4800 	push	{fp, lr}
6000092c:	e28db004 	add	fp, sp, #4
60000930:	e24dd008 	sub	sp, sp, #8
60000934:	ebfffded 	bl	600000f0 <ygos_interrupt_disable>
60000938:	e1a03000 	mov	r3, r0
6000093c:	e50b3008 	str	r3, [fp, #-8]
60000940:	e3023c7c 	movw	r3, #11388	; 0x2c7c
60000944:	e3463000 	movt	r3, #24576	; 0x6000
60000948:	e5933000 	ldr	r3, [r3]
6000094c:	e3530000 	cmp	r3, #0
60000950:	1a000013 	bne	600009a4 <ygos_sche+0x7c>
60000954:	ebffffe1 	bl	600008e0 <ygos_sche_new>
60000958:	e3023c74 	movw	r3, #11380	; 0x2c74
6000095c:	e3463000 	movt	r3, #24576	; 0x6000
60000960:	e5d33000 	ldrb	r3, [r3]
60000964:	e1a02003 	mov	r2, r3
60000968:	e3023bf4 	movw	r3, #11252	; 0x2bf4
6000096c:	e3463000 	movt	r3, #24576	; 0x6000
60000970:	e7932102 	ldr	r2, [r3, r2, lsl #2]
60000974:	e3023c78 	movw	r3, #11384	; 0x2c78
60000978:	e3463000 	movt	r3, #24576	; 0x6000
6000097c:	e5832000 	str	r2, [r3]
60000980:	e3023c74 	movw	r3, #11380	; 0x2c74
60000984:	e3463000 	movt	r3, #24576	; 0x6000
60000988:	e5d32000 	ldrb	r2, [r3]
6000098c:	e3023bf0 	movw	r3, #11248	; 0x2bf0
60000990:	e3463000 	movt	r3, #24576	; 0x6000
60000994:	e5d33000 	ldrb	r3, [r3]
60000998:	e1520003 	cmp	r2, r3
6000099c:	0a000000 	beq	600009a4 <ygos_sche+0x7c>
600009a0:	eb000250 	bl	600012e8 <os_task_switch>
600009a4:	e51b0008 	ldr	r0, [fp, #-8]
600009a8:	ebfffdd3 	bl	600000fc <ygos_interrupt_enable>
600009ac:	e1a00000 	nop			; (mov r0, r0)
600009b0:	e24bd004 	sub	sp, fp, #4
600009b4:	e8bd8800 	pop	{fp, pc}

600009b8 <ygos_timer_sche>:
600009b8:	e92d4800 	push	{fp, lr}
600009bc:	e28db004 	add	fp, sp, #4
600009c0:	e24dd008 	sub	sp, sp, #8
600009c4:	ebfffdc9 	bl	600000f0 <ygos_interrupt_disable>
600009c8:	e1a03000 	mov	r3, r0
600009cc:	e50b300c 	str	r3, [fp, #-12]
600009d0:	e302305c 	movw	r3, #8284	; 0x205c
600009d4:	e3463000 	movt	r3, #24576	; 0x6000
600009d8:	e5933000 	ldr	r3, [r3]
600009dc:	e2832001 	add	r2, r3, #1
600009e0:	e302305c 	movw	r3, #8284	; 0x205c
600009e4:	e3463000 	movt	r3, #24576	; 0x6000
600009e8:	e5832000 	str	r2, [r3]
600009ec:	e51b000c 	ldr	r0, [fp, #-12]
600009f0:	ebfffdc1 	bl	600000fc <ygos_interrupt_enable>
600009f4:	e3023054 	movw	r3, #8276	; 0x2054
600009f8:	e3463000 	movt	r3, #24576	; 0x6000
600009fc:	e5d33000 	ldrb	r3, [r3]
60000a00:	e3530000 	cmp	r3, #0
60000a04:	0a000039 	beq	60000af0 <ygos_timer_sche+0x138>
60000a08:	e3023c80 	movw	r3, #11392	; 0x2c80
60000a0c:	e3463000 	movt	r3, #24576	; 0x6000
60000a10:	e5933000 	ldr	r3, [r3]
60000a14:	e2433084 	sub	r3, r3, #132	; 0x84
60000a18:	e50b3008 	str	r3, [fp, #-8]
60000a1c:	ea00002c 	b	60000ad4 <ygos_timer_sche+0x11c>
60000a20:	e51b3008 	ldr	r3, [fp, #-8]
60000a24:	e5d3308c 	ldrb	r3, [r3, #140]	; 0x8c
60000a28:	e353001f 	cmp	r3, #31
60000a2c:	0a000024 	beq	60000ac4 <ygos_timer_sche+0x10c>
60000a30:	ebfffdae 	bl	600000f0 <ygos_interrupt_disable>
60000a34:	e1a03000 	mov	r3, r0
60000a38:	e50b300c 	str	r3, [fp, #-12]
60000a3c:	e51b3008 	ldr	r3, [fp, #-8]
60000a40:	e5933090 	ldr	r3, [r3, #144]	; 0x90
60000a44:	e3530000 	cmp	r3, #0
60000a48:	0a00001b 	beq	60000abc <ygos_timer_sche+0x104>
60000a4c:	e51b3008 	ldr	r3, [fp, #-8]
60000a50:	e5933090 	ldr	r3, [r3, #144]	; 0x90
60000a54:	e2432001 	sub	r2, r3, #1
60000a58:	e51b3008 	ldr	r3, [fp, #-8]
60000a5c:	e5832090 	str	r2, [r3, #144]	; 0x90
60000a60:	e51b3008 	ldr	r3, [fp, #-8]
60000a64:	e5933090 	ldr	r3, [r3, #144]	; 0x90
60000a68:	e3530000 	cmp	r3, #0
60000a6c:	1a000012 	bne	60000abc <ygos_timer_sche+0x104>
60000a70:	e51b3008 	ldr	r3, [fp, #-8]
60000a74:	e5d33094 	ldrb	r3, [r3, #148]	; 0x94
60000a78:	e3530000 	cmp	r3, #0
60000a7c:	0a000006 	beq	60000a9c <ygos_timer_sche+0xe4>
60000a80:	e51b3008 	ldr	r3, [fp, #-8]
60000a84:	e3a02000 	mov	r2, #0
60000a88:	e5c32094 	strb	r2, [r3, #148]	; 0x94
60000a8c:	e51b3008 	ldr	r3, [fp, #-8]
60000a90:	e3a02001 	mov	r2, #1
60000a94:	e5c32095 	strb	r2, [r3, #149]	; 0x95
60000a98:	ea000002 	b	60000aa8 <ygos_timer_sche+0xf0>
60000a9c:	e51b3008 	ldr	r3, [fp, #-8]
60000aa0:	e3a02000 	mov	r2, #0
60000aa4:	e5c32095 	strb	r2, [r3, #149]	; 0x95
60000aa8:	e51b3008 	ldr	r3, [fp, #-8]
60000aac:	e5d3308c 	ldrb	r3, [r3, #140]	; 0x8c
60000ab0:	e1a00003 	mov	r0, r3
60000ab4:	ebfffee8 	bl	6000065c <ygos_task_ready_add>
60000ab8:	ebffff88 	bl	600008e0 <ygos_sche_new>
60000abc:	e51b000c 	ldr	r0, [fp, #-12]
60000ac0:	ebfffd8d 	bl	600000fc <ygos_interrupt_enable>
60000ac4:	e51b3008 	ldr	r3, [fp, #-8]
60000ac8:	e5933084 	ldr	r3, [r3, #132]	; 0x84
60000acc:	e2433084 	sub	r3, r3, #132	; 0x84
60000ad0:	e50b3008 	str	r3, [fp, #-8]
60000ad4:	e51b3008 	ldr	r3, [fp, #-8]
60000ad8:	e2832084 	add	r2, r3, #132	; 0x84
60000adc:	e3023c80 	movw	r3, #11392	; 0x2c80
60000ae0:	e3463000 	movt	r3, #24576	; 0x6000
60000ae4:	e1520003 	cmp	r2, r3
60000ae8:	1affffcc 	bne	60000a20 <ygos_timer_sche+0x68>
60000aec:	ea000000 	b	60000af4 <ygos_timer_sche+0x13c>
60000af0:	e1a00000 	nop			; (mov r0, r0)
60000af4:	e24bd004 	sub	sp, fp, #4
60000af8:	e8bd8800 	pop	{fp, pc}

60000afc <ygos_get_tick>:
60000afc:	e92d4800 	push	{fp, lr}
60000b00:	e28db004 	add	fp, sp, #4
60000b04:	e24dd008 	sub	sp, sp, #8
60000b08:	ebfffd78 	bl	600000f0 <ygos_interrupt_disable>
60000b0c:	e1a03000 	mov	r3, r0
60000b10:	e50b3008 	str	r3, [fp, #-8]
60000b14:	e302305c 	movw	r3, #8284	; 0x205c
60000b18:	e3463000 	movt	r3, #24576	; 0x6000
60000b1c:	e5933000 	ldr	r3, [r3]
60000b20:	e50b300c 	str	r3, [fp, #-12]
60000b24:	e51b0008 	ldr	r0, [fp, #-8]
60000b28:	ebfffd73 	bl	600000fc <ygos_interrupt_enable>
60000b2c:	e51b300c 	ldr	r3, [fp, #-12]
60000b30:	e1a00003 	mov	r0, r3
60000b34:	e24bd004 	sub	sp, fp, #4
60000b38:	e8bd8800 	pop	{fp, pc}

60000b3c <ygos_start>:
60000b3c:	e92d4800 	push	{fp, lr}
60000b40:	e28db004 	add	fp, sp, #4
60000b44:	e3023054 	movw	r3, #8276	; 0x2054
60000b48:	e3463000 	movt	r3, #24576	; 0x6000
60000b4c:	e5d33000 	ldrb	r3, [r3]
60000b50:	e3530000 	cmp	r3, #0
60000b54:	1a000017 	bne	60000bb8 <ygos_start+0x7c>
60000b58:	ebffff60 	bl	600008e0 <ygos_sche_new>
60000b5c:	e3023c74 	movw	r3, #11380	; 0x2c74
60000b60:	e3463000 	movt	r3, #24576	; 0x6000
60000b64:	e5d32000 	ldrb	r2, [r3]
60000b68:	e3023bf0 	movw	r3, #11248	; 0x2bf0
60000b6c:	e3463000 	movt	r3, #24576	; 0x6000
60000b70:	e5c32000 	strb	r2, [r3]
60000b74:	e3023c74 	movw	r3, #11380	; 0x2c74
60000b78:	e3463000 	movt	r3, #24576	; 0x6000
60000b7c:	e5d33000 	ldrb	r3, [r3]
60000b80:	e1a02003 	mov	r2, r3
60000b84:	e3023bf4 	movw	r3, #11252	; 0x2bf4
60000b88:	e3463000 	movt	r3, #24576	; 0x6000
60000b8c:	e7932102 	ldr	r2, [r3, r2, lsl #2]
60000b90:	e3023c78 	movw	r3, #11384	; 0x2c78
60000b94:	e3463000 	movt	r3, #24576	; 0x6000
60000b98:	e5832000 	str	r2, [r3]
60000b9c:	e3023c78 	movw	r3, #11384	; 0x2c78
60000ba0:	e3463000 	movt	r3, #24576	; 0x6000
60000ba4:	e5932000 	ldr	r2, [r3]
60000ba8:	e302326c 	movw	r3, #8812	; 0x226c
60000bac:	e3463000 	movt	r3, #24576	; 0x6000
60000bb0:	e5832000 	str	r2, [r3]
60000bb4:	ebfffd52 	bl	60000104 <ygos_start_high_ready>
60000bb8:	e1a00000 	nop			; (mov r0, r0)
60000bbc:	e8bd8800 	pop	{fp, pc}

60000bc0 <ygos_init>:
60000bc0:	e92d4800 	push	{fp, lr}
60000bc4:	e28db004 	add	fp, sp, #4
60000bc8:	e3023054 	movw	r3, #8276	; 0x2054
60000bcc:	e3463000 	movt	r3, #24576	; 0x6000
60000bd0:	e5d33000 	ldrb	r3, [r3]
60000bd4:	e3530000 	cmp	r3, #0
60000bd8:	1a000001 	bne	60000be4 <ygos_init+0x24>
60000bdc:	ebfffe7d 	bl	600005d8 <ygos_tcb_list_init>
60000be0:	eb00000d 	bl	60000c1c <ygos_idle_task_init>
60000be4:	e1a00000 	nop			; (mov r0, r0)
60000be8:	e8bd8800 	pop	{fp, pc}

60000bec <idle_task_entry>:
60000bec:	e52db004 	push	{fp}		; (str fp, [sp, #-4]!)
60000bf0:	e28db000 	add	fp, sp, #0
60000bf4:	e24dd00c 	sub	sp, sp, #12
60000bf8:	e50b0008 	str	r0, [fp, #-8]
60000bfc:	e3023260 	movw	r3, #8800	; 0x2260
60000c00:	e3463000 	movt	r3, #24576	; 0x6000
60000c04:	e5933000 	ldr	r3, [r3]
60000c08:	e2832001 	add	r2, r3, #1
60000c0c:	e3023260 	movw	r3, #8800	; 0x2260
60000c10:	e3463000 	movt	r3, #24576	; 0x6000
60000c14:	e5832000 	str	r2, [r3]
60000c18:	eafffff7 	b	60000bfc <idle_task_entry+0x10>

60000c1c <ygos_idle_task_init>:
60000c1c:	e92d4800 	push	{fp, lr}
60000c20:	e28db004 	add	fp, sp, #4
60000c24:	e302325c 	movw	r3, #8796	; 0x225c
60000c28:	e3463000 	movt	r3, #24576	; 0x6000
60000c2c:	e3a02000 	mov	r2, #0
60000c30:	e3001bec 	movw	r1, #3052	; 0xbec
60000c34:	e3461000 	movt	r1, #24576	; 0x6000
60000c38:	e3a0001f 	mov	r0, #31
60000c3c:	ebfffe31 	bl	60000508 <ygos_tcb_create>
60000c40:	e3a0001f 	mov	r0, #31
60000c44:	ebfffe84 	bl	6000065c <ygos_task_ready_add>
60000c48:	e1a00000 	nop			; (mov r0, r0)
60000c4c:	e8bd8800 	pop	{fp, pc}

60000c50 <ygos_sleep_tick>:
60000c50:	e92d4800 	push	{fp, lr}
60000c54:	e28db004 	add	fp, sp, #4
60000c58:	e24dd010 	sub	sp, sp, #16
60000c5c:	e50b0010 	str	r0, [fp, #-16]
60000c60:	e3023c7c 	movw	r3, #11388	; 0x2c7c
60000c64:	e3463000 	movt	r3, #24576	; 0x6000
60000c68:	e5933000 	ldr	r3, [r3]
60000c6c:	e3530000 	cmp	r3, #0
60000c70:	1a000013 	bne	60000cc4 <ygos_sleep_tick+0x74>
60000c74:	e51b3010 	ldr	r3, [fp, #-16]
60000c78:	e3530000 	cmp	r3, #0
60000c7c:	0a000011 	beq	60000cc8 <ygos_sleep_tick+0x78>
60000c80:	ebfffd1a 	bl	600000f0 <ygos_interrupt_disable>
60000c84:	e1a03000 	mov	r3, r0
60000c88:	e50b3008 	str	r3, [fp, #-8]
60000c8c:	e302326c 	movw	r3, #8812	; 0x226c
60000c90:	e3463000 	movt	r3, #24576	; 0x6000
60000c94:	e5933000 	ldr	r3, [r3]
60000c98:	e51b2010 	ldr	r2, [fp, #-16]
60000c9c:	e5832090 	str	r2, [r3, #144]	; 0x90
60000ca0:	e3023bf0 	movw	r3, #11248	; 0x2bf0
60000ca4:	e3463000 	movt	r3, #24576	; 0x6000
60000ca8:	e5d33000 	ldrb	r3, [r3]
60000cac:	e1a00003 	mov	r0, r3
60000cb0:	ebfffec0 	bl	600007b8 <ygos_task_ready_delete>
60000cb4:	e51b0008 	ldr	r0, [fp, #-8]
60000cb8:	ebfffd0f 	bl	600000fc <ygos_interrupt_enable>
60000cbc:	ebffff19 	bl	60000928 <ygos_sche>
60000cc0:	ea000000 	b	60000cc8 <ygos_sleep_tick+0x78>
60000cc4:	e1a00000 	nop			; (mov r0, r0)
60000cc8:	e24bd004 	sub	sp, fp, #4
60000ccc:	e8bd8800 	pop	{fp, pc}

60000cd0 <INIT_LIST_HEAD>:
60000cd0:	e52db004 	push	{fp}		; (str fp, [sp, #-4]!)
60000cd4:	e28db000 	add	fp, sp, #0
60000cd8:	e24dd00c 	sub	sp, sp, #12
60000cdc:	e50b0008 	str	r0, [fp, #-8]
60000ce0:	e51b3008 	ldr	r3, [fp, #-8]
60000ce4:	e51b2008 	ldr	r2, [fp, #-8]
60000ce8:	e5832000 	str	r2, [r3]
60000cec:	e51b3008 	ldr	r3, [fp, #-8]
60000cf0:	e51b2008 	ldr	r2, [fp, #-8]
60000cf4:	e5832004 	str	r2, [r3, #4]
60000cf8:	e1a00000 	nop			; (mov r0, r0)
60000cfc:	e24bd000 	sub	sp, fp, #0
60000d00:	e49db004 	pop	{fp}		; (ldr fp, [sp], #4)
60000d04:	e12fff1e 	bx	lr

60000d08 <list_empty>:
60000d08:	e52db004 	push	{fp}		; (str fp, [sp, #-4]!)
60000d0c:	e28db000 	add	fp, sp, #0
60000d10:	e24dd00c 	sub	sp, sp, #12
60000d14:	e50b0008 	str	r0, [fp, #-8]
60000d18:	e51b3008 	ldr	r3, [fp, #-8]
60000d1c:	e5932000 	ldr	r2, [r3]
60000d20:	e51b3008 	ldr	r3, [fp, #-8]
60000d24:	e1520003 	cmp	r2, r3
60000d28:	03a03001 	moveq	r3, #1
60000d2c:	13a03000 	movne	r3, #0
60000d30:	e6ef3073 	uxtb	r3, r3
60000d34:	e1a00003 	mov	r0, r3
60000d38:	e24bd000 	sub	sp, fp, #0
60000d3c:	e49db004 	pop	{fp}		; (ldr fp, [sp], #4)
60000d40:	e12fff1e 	bx	lr

60000d44 <__list_add>:
60000d44:	e52db004 	push	{fp}		; (str fp, [sp, #-4]!)
60000d48:	e28db000 	add	fp, sp, #0
60000d4c:	e24dd014 	sub	sp, sp, #20
60000d50:	e50b0008 	str	r0, [fp, #-8]
60000d54:	e50b100c 	str	r1, [fp, #-12]
60000d58:	e50b2010 	str	r2, [fp, #-16]
60000d5c:	e51b3010 	ldr	r3, [fp, #-16]
60000d60:	e51b2008 	ldr	r2, [fp, #-8]
60000d64:	e5832004 	str	r2, [r3, #4]
60000d68:	e51b3008 	ldr	r3, [fp, #-8]
60000d6c:	e51b2010 	ldr	r2, [fp, #-16]
60000d70:	e5832000 	str	r2, [r3]
60000d74:	e51b3008 	ldr	r3, [fp, #-8]
60000d78:	e51b200c 	ldr	r2, [fp, #-12]
60000d7c:	e5832004 	str	r2, [r3, #4]
60000d80:	e51b300c 	ldr	r3, [fp, #-12]
60000d84:	e51b2008 	ldr	r2, [fp, #-8]
60000d88:	e5832000 	str	r2, [r3]
60000d8c:	e1a00000 	nop			; (mov r0, r0)
60000d90:	e24bd000 	sub	sp, fp, #0
60000d94:	e49db004 	pop	{fp}		; (ldr fp, [sp], #4)
60000d98:	e12fff1e 	bx	lr

60000d9c <list_add_tail>:
60000d9c:	e92d4800 	push	{fp, lr}
60000da0:	e28db004 	add	fp, sp, #4
60000da4:	e24dd008 	sub	sp, sp, #8
60000da8:	e50b0008 	str	r0, [fp, #-8]
60000dac:	e50b100c 	str	r1, [fp, #-12]
60000db0:	e51b300c 	ldr	r3, [fp, #-12]
60000db4:	e5933004 	ldr	r3, [r3, #4]
60000db8:	e51b200c 	ldr	r2, [fp, #-12]
60000dbc:	e1a01003 	mov	r1, r3
60000dc0:	e51b0008 	ldr	r0, [fp, #-8]
60000dc4:	ebffffde 	bl	60000d44 <__list_add>
60000dc8:	e1a00000 	nop			; (mov r0, r0)
60000dcc:	e24bd004 	sub	sp, fp, #4
60000dd0:	e8bd8800 	pop	{fp, pc}

60000dd4 <__list_del>:
60000dd4:	e52db004 	push	{fp}		; (str fp, [sp, #-4]!)
60000dd8:	e28db000 	add	fp, sp, #0
60000ddc:	e24dd00c 	sub	sp, sp, #12
60000de0:	e50b0008 	str	r0, [fp, #-8]
60000de4:	e50b100c 	str	r1, [fp, #-12]
60000de8:	e51b300c 	ldr	r3, [fp, #-12]
60000dec:	e51b2008 	ldr	r2, [fp, #-8]
60000df0:	e5832004 	str	r2, [r3, #4]
60000df4:	e51b3008 	ldr	r3, [fp, #-8]
60000df8:	e51b200c 	ldr	r2, [fp, #-12]
60000dfc:	e5832000 	str	r2, [r3]
60000e00:	e1a00000 	nop			; (mov r0, r0)
60000e04:	e24bd000 	sub	sp, fp, #0
60000e08:	e49db004 	pop	{fp}		; (ldr fp, [sp], #4)
60000e0c:	e12fff1e 	bx	lr

60000e10 <list_del>:
60000e10:	e92d4800 	push	{fp, lr}
60000e14:	e28db004 	add	fp, sp, #4
60000e18:	e24dd008 	sub	sp, sp, #8
60000e1c:	e50b0008 	str	r0, [fp, #-8]
60000e20:	e51b3008 	ldr	r3, [fp, #-8]
60000e24:	e5932004 	ldr	r2, [r3, #4]
60000e28:	e51b3008 	ldr	r3, [fp, #-8]
60000e2c:	e5933000 	ldr	r3, [r3]
60000e30:	e1a01003 	mov	r1, r3
60000e34:	e1a00002 	mov	r0, r2
60000e38:	ebffffe5 	bl	60000dd4 <__list_del>
60000e3c:	e51b2008 	ldr	r2, [fp, #-8]
60000e40:	e3a03c01 	mov	r3, #256	; 0x100
60000e44:	e3403010 	movt	r3, #16
60000e48:	e5823000 	str	r3, [r2]
60000e4c:	e51b2008 	ldr	r2, [fp, #-8]
60000e50:	e3a03c02 	mov	r3, #512	; 0x200
60000e54:	e3403020 	movt	r3, #32
60000e58:	e5823004 	str	r3, [r2, #4]
60000e5c:	e1a00000 	nop			; (mov r0, r0)
60000e60:	e24bd004 	sub	sp, fp, #4
60000e64:	e8bd8800 	pop	{fp, pc}

60000e68 <list_del_first>:
60000e68:	e92d4800 	push	{fp, lr}
60000e6c:	e28db004 	add	fp, sp, #4
60000e70:	e24dd008 	sub	sp, sp, #8
60000e74:	e50b0008 	str	r0, [fp, #-8]
60000e78:	e51b0008 	ldr	r0, [fp, #-8]
60000e7c:	ebffffa1 	bl	60000d08 <list_empty>
60000e80:	e1a03000 	mov	r3, r0
60000e84:	e3530000 	cmp	r3, #0
60000e88:	1a000003 	bne	60000e9c <list_del_first+0x34>
60000e8c:	e51b3008 	ldr	r3, [fp, #-8]
60000e90:	e5933000 	ldr	r3, [r3]
60000e94:	e1a00003 	mov	r0, r3
60000e98:	ebffffdc 	bl	60000e10 <list_del>
60000e9c:	e1a00000 	nop			; (mov r0, r0)
60000ea0:	e24bd004 	sub	sp, fp, #4
60000ea4:	e8bd8800 	pop	{fp, pc}

60000ea8 <list_get_first>:
60000ea8:	e92d4800 	push	{fp, lr}
60000eac:	e28db004 	add	fp, sp, #4
60000eb0:	e24dd008 	sub	sp, sp, #8
60000eb4:	e50b0008 	str	r0, [fp, #-8]
60000eb8:	e51b0008 	ldr	r0, [fp, #-8]
60000ebc:	ebffff91 	bl	60000d08 <list_empty>
60000ec0:	e1a03000 	mov	r3, r0
60000ec4:	e3530000 	cmp	r3, #0
60000ec8:	1a000002 	bne	60000ed8 <list_get_first+0x30>
60000ecc:	e51b3008 	ldr	r3, [fp, #-8]
60000ed0:	e5933000 	ldr	r3, [r3]
60000ed4:	ea000000 	b	60000edc <list_get_first+0x34>
60000ed8:	e3a03000 	mov	r3, #0
60000edc:	e1a00003 	mov	r0, r3
60000ee0:	e24bd004 	sub	sp, fp, #4
60000ee4:	e8bd8800 	pop	{fp, pc}

60000ee8 <ygos_sem_init>:
60000ee8:	e92d4800 	push	{fp, lr}
60000eec:	e28db004 	add	fp, sp, #4
60000ef0:	e24dd008 	sub	sp, sp, #8
60000ef4:	e50b0008 	str	r0, [fp, #-8]
60000ef8:	e50b100c 	str	r1, [fp, #-12]
60000efc:	e51b3008 	ldr	r3, [fp, #-8]
60000f00:	e3530000 	cmp	r3, #0
60000f04:	0a00000a 	beq	60000f34 <ygos_sem_init+0x4c>
60000f08:	e51b300c 	ldr	r3, [fp, #-12]
60000f0c:	e353000a 	cmp	r3, #10
60000f10:	8a000007 	bhi	60000f34 <ygos_sem_init+0x4c>
60000f14:	e51b300c 	ldr	r3, [fp, #-12]
60000f18:	e6bf2073 	sxth	r2, r3
60000f1c:	e51b3008 	ldr	r3, [fp, #-8]
60000f20:	e1c320b0 	strh	r2, [r3]
60000f24:	e51b3008 	ldr	r3, [fp, #-8]
60000f28:	e2833004 	add	r3, r3, #4
60000f2c:	e1a00003 	mov	r0, r3
60000f30:	ebffff66 	bl	60000cd0 <INIT_LIST_HEAD>
60000f34:	e3a03000 	mov	r3, #0
60000f38:	e1a00003 	mov	r0, r3
60000f3c:	e24bd004 	sub	sp, fp, #4
60000f40:	e8bd8800 	pop	{fp, pc}

60000f44 <ygos_sem_wait>:
60000f44:	e92d4800 	push	{fp, lr}
60000f48:	e28db004 	add	fp, sp, #4
60000f4c:	e24dd010 	sub	sp, sp, #16
60000f50:	e50b0010 	str	r0, [fp, #-16]
60000f54:	e50b1014 	str	r1, [fp, #-20]	; 0xffffffec
60000f58:	ebfffc64 	bl	600000f0 <ygos_interrupt_disable>
60000f5c:	e51b3010 	ldr	r3, [fp, #-16]
60000f60:	e1d330b0 	ldrh	r3, [r3]
60000f64:	e6bf3073 	sxth	r3, r3
60000f68:	e3530000 	cmp	r3, #0
60000f6c:	0a00000c 	beq	60000fa4 <ygos_sem_wait+0x60>
60000f70:	e51b3010 	ldr	r3, [fp, #-16]
60000f74:	e1d330b0 	ldrh	r3, [r3]
60000f78:	e6bf3073 	sxth	r3, r3
60000f7c:	e6ff3073 	uxth	r3, r3
60000f80:	e2433001 	sub	r3, r3, #1
60000f84:	e6ff3073 	uxth	r3, r3
60000f88:	e6bf2073 	sxth	r2, r3
60000f8c:	e51b3010 	ldr	r3, [fp, #-16]
60000f90:	e1c320b0 	strh	r2, [r3]
60000f94:	e51b0008 	ldr	r0, [fp, #-8]
60000f98:	ebfffc57 	bl	600000fc <ygos_interrupt_enable>
60000f9c:	e3a03000 	mov	r3, #0
60000fa0:	ea000021 	b	6000102c <ygos_sem_wait+0xe8>
60000fa4:	e302326c 	movw	r3, #8812	; 0x226c
60000fa8:	e3463000 	movt	r3, #24576	; 0x6000
60000fac:	e5933000 	ldr	r3, [r3]
60000fb0:	e51b2014 	ldr	r2, [fp, #-20]	; 0xffffffec
60000fb4:	e5832090 	str	r2, [r3, #144]	; 0x90
60000fb8:	e302326c 	movw	r3, #8812	; 0x226c
60000fbc:	e3463000 	movt	r3, #24576	; 0x6000
60000fc0:	e5933000 	ldr	r3, [r3]
60000fc4:	e3a02001 	mov	r2, #1
60000fc8:	e5c32094 	strb	r2, [r3, #148]	; 0x94
60000fcc:	e302326c 	movw	r3, #8812	; 0x226c
60000fd0:	e3463000 	movt	r3, #24576	; 0x6000
60000fd4:	e5933000 	ldr	r3, [r3]
60000fd8:	e2833084 	add	r3, r3, #132	; 0x84
60000fdc:	e50b300c 	str	r3, [fp, #-12]
60000fe0:	e51b000c 	ldr	r0, [fp, #-12]
60000fe4:	ebffff89 	bl	60000e10 <list_del>
60000fe8:	e51b3010 	ldr	r3, [fp, #-16]
60000fec:	e2833004 	add	r3, r3, #4
60000ff0:	e1a01003 	mov	r1, r3
60000ff4:	e51b000c 	ldr	r0, [fp, #-12]
60000ff8:	ebffff67 	bl	60000d9c <list_add_tail>
60000ffc:	e3023bf0 	movw	r3, #11248	; 0x2bf0
60001000:	e3463000 	movt	r3, #24576	; 0x6000
60001004:	e5d33000 	ldrb	r3, [r3]
60001008:	e1a00003 	mov	r0, r3
6000100c:	ebfffde9 	bl	600007b8 <ygos_task_ready_delete>
60001010:	ebfffe44 	bl	60000928 <ygos_sche>
60001014:	e51b0008 	ldr	r0, [fp, #-8]
60001018:	ebfffc37 	bl	600000fc <ygos_interrupt_enable>
6000101c:	e302326c 	movw	r3, #8812	; 0x226c
60001020:	e3463000 	movt	r3, #24576	; 0x6000
60001024:	e5933000 	ldr	r3, [r3]
60001028:	e5d33094 	ldrb	r3, [r3, #148]	; 0x94
6000102c:	e1a00003 	mov	r0, r3
60001030:	e24bd004 	sub	sp, fp, #4
60001034:	e8bd8800 	pop	{fp, pc}

60001038 <ygos_sem_post>:
60001038:	e92d4800 	push	{fp, lr}
6000103c:	e28db004 	add	fp, sp, #4
60001040:	e24dd018 	sub	sp, sp, #24
60001044:	e50b0018 	str	r0, [fp, #-24]	; 0xffffffe8
60001048:	ebfffc28 	bl	600000f0 <ygos_interrupt_disable>
6000104c:	e51b3018 	ldr	r3, [fp, #-24]	; 0xffffffe8
60001050:	e2833004 	add	r3, r3, #4
60001054:	e1a00003 	mov	r0, r3
60001058:	ebffff2a 	bl	60000d08 <list_empty>
6000105c:	e1a03000 	mov	r3, r0
60001060:	e3530000 	cmp	r3, #0
60001064:	1a000027 	bne	60001108 <ygos_sem_post+0xd0>
60001068:	e51b3018 	ldr	r3, [fp, #-24]	; 0xffffffe8
6000106c:	e2833004 	add	r3, r3, #4
60001070:	e1a00003 	mov	r0, r3
60001074:	ebffff8b 	bl	60000ea8 <list_get_first>
60001078:	e50b0008 	str	r0, [fp, #-8]
6000107c:	e51b3008 	ldr	r3, [fp, #-8]
60001080:	e2433084 	sub	r3, r3, #132	; 0x84
60001084:	e50b300c 	str	r3, [fp, #-12]
60001088:	e51b300c 	ldr	r3, [fp, #-12]
6000108c:	e3530000 	cmp	r3, #0
60001090:	0a00001c 	beq	60001108 <ygos_sem_post+0xd0>
60001094:	e51b3018 	ldr	r3, [fp, #-24]	; 0xffffffe8
60001098:	e5933004 	ldr	r3, [r3, #4]
6000109c:	e50b3010 	str	r3, [fp, #-16]
600010a0:	e51b3018 	ldr	r3, [fp, #-24]	; 0xffffffe8
600010a4:	e2833004 	add	r3, r3, #4
600010a8:	e1a00003 	mov	r0, r3
600010ac:	ebffff6d 	bl	60000e68 <list_del_first>
600010b0:	e3021c80 	movw	r1, #11392	; 0x2c80
600010b4:	e3461000 	movt	r1, #24576	; 0x6000
600010b8:	e51b0010 	ldr	r0, [fp, #-16]
600010bc:	ebffff36 	bl	60000d9c <list_add_tail>
600010c0:	e51b300c 	ldr	r3, [fp, #-12]
600010c4:	e3a02000 	mov	r2, #0
600010c8:	e5c32094 	strb	r2, [r3, #148]	; 0x94
600010cc:	e51b300c 	ldr	r3, [fp, #-12]
600010d0:	e3a02000 	mov	r2, #0
600010d4:	e5c32095 	strb	r2, [r3, #149]	; 0x95
600010d8:	e51b300c 	ldr	r3, [fp, #-12]
600010dc:	e3a02000 	mov	r2, #0
600010e0:	e5832090 	str	r2, [r3, #144]	; 0x90
600010e4:	e51b300c 	ldr	r3, [fp, #-12]
600010e8:	e5d3308c 	ldrb	r3, [r3, #140]	; 0x8c
600010ec:	e1a00003 	mov	r0, r3
600010f0:	ebfffd59 	bl	6000065c <ygos_task_ready_add>
600010f4:	ebfffe0b 	bl	60000928 <ygos_sche>
600010f8:	e51b0014 	ldr	r0, [fp, #-20]	; 0xffffffec
600010fc:	ebfffbfe 	bl	600000fc <ygos_interrupt_enable>
60001100:	e3a03000 	mov	r3, #0
60001104:	ea00000e 	b	60001144 <ygos_sem_post+0x10c>
60001108:	ebfffbf8 	bl	600000f0 <ygos_interrupt_disable>
6000110c:	e51b3018 	ldr	r3, [fp, #-24]	; 0xffffffe8
60001110:	e1d330b0 	ldrh	r3, [r3]
60001114:	e6bf3073 	sxth	r3, r3
60001118:	e6ff3073 	uxth	r3, r3
6000111c:	e2833001 	add	r3, r3, #1
60001120:	e6ff3073 	uxth	r3, r3
60001124:	e6bf2073 	sxth	r2, r3
60001128:	e51b3018 	ldr	r3, [fp, #-24]	; 0xffffffe8
6000112c:	e1c320b0 	strh	r2, [r3]
60001130:	e51b3018 	ldr	r3, [fp, #-24]	; 0xffffffe8
60001134:	e1d330b0 	ldrh	r3, [r3]
60001138:	e51b0014 	ldr	r0, [fp, #-20]	; 0xffffffec
6000113c:	ebfffbee 	bl	600000fc <ygos_interrupt_enable>
60001140:	e3a03000 	mov	r3, #0
60001144:	e1a00003 	mov	r0, r3
60001148:	e24bd004 	sub	sp, fp, #4
6000114c:	e8bd8800 	pop	{fp, pc}

60001150 <task1_entry>:
60001150:	e92d4800 	push	{fp, lr}
60001154:	e28db004 	add	fp, sp, #4
60001158:	e24dd008 	sub	sp, sp, #8
6000115c:	e50b0008 	str	r0, [fp, #-8]
60001160:	e3a01064 	mov	r1, #100	; 0x64
60001164:	e3030090 	movw	r0, #12432	; 0x3090
60001168:	e3460000 	movt	r0, #24576	; 0x6000
6000116c:	ebffff74 	bl	60000f44 <ygos_sem_wait>
60001170:	e3023264 	movw	r3, #8804	; 0x2264
60001174:	e3463000 	movt	r3, #24576	; 0x6000
60001178:	e5933000 	ldr	r3, [r3]
6000117c:	e2832001 	add	r2, r3, #1
60001180:	e3023264 	movw	r3, #8804	; 0x2264
60001184:	e3463000 	movt	r3, #24576	; 0x6000
60001188:	e5832000 	str	r2, [r3]
6000118c:	e303009c 	movw	r0, #12444	; 0x309c
60001190:	e3460000 	movt	r0, #24576	; 0x6000
60001194:	ebffffa7 	bl	60001038 <ygos_sem_post>
60001198:	eafffff0 	b	60001160 <task1_entry+0x10>

6000119c <task2_entry>:
6000119c:	e92d4800 	push	{fp, lr}
600011a0:	e28db004 	add	fp, sp, #4
600011a4:	e24dd008 	sub	sp, sp, #8
600011a8:	e50b0008 	str	r0, [fp, #-8]
600011ac:	e3030090 	movw	r0, #12432	; 0x3090
600011b0:	e3460000 	movt	r0, #24576	; 0x6000
600011b4:	ebffff9f 	bl	60001038 <ygos_sem_post>
600011b8:	e3023268 	movw	r3, #8808	; 0x2268
600011bc:	e3463000 	movt	r3, #24576	; 0x6000
600011c0:	e5933000 	ldr	r3, [r3]
600011c4:	e2832001 	add	r2, r3, #1
600011c8:	e3023268 	movw	r3, #8808	; 0x2268
600011cc:	e3463000 	movt	r3, #24576	; 0x6000
600011d0:	e5832000 	str	r2, [r3]
600011d4:	e3a01064 	mov	r1, #100	; 0x64
600011d8:	e303009c 	movw	r0, #12444	; 0x309c
600011dc:	e3460000 	movt	r0, #24576	; 0x6000
600011e0:	ebffff57 	bl	60000f44 <ygos_sem_wait>
600011e4:	eafffff0 	b	600011ac <task2_entry+0x10>

600011e8 <main>:
600011e8:	e92d4800 	push	{fp, lr}
600011ec:	e28db004 	add	fp, sp, #4
600011f0:	e24dd008 	sub	sp, sp, #8
600011f4:	e50b0008 	str	r0, [fp, #-8]
600011f8:	e50b100c 	str	r1, [fp, #-12]
600011fc:	e3a01000 	mov	r1, #0
60001200:	e3030090 	movw	r0, #12432	; 0x3090
60001204:	e3460000 	movt	r0, #24576	; 0x6000
60001208:	ebffff36 	bl	60000ee8 <ygos_sem_init>
6000120c:	e3a01000 	mov	r1, #0
60001210:	e303009c 	movw	r0, #12444	; 0x309c
60001214:	e3460000 	movt	r0, #24576	; 0x6000
60001218:	ebffff32 	bl	60000ee8 <ygos_sem_init>
6000121c:	ebfffe67 	bl	60000bc0 <ygos_init>
60001220:	e303308c 	movw	r3, #12428	; 0x308c
60001224:	e3463000 	movt	r3, #24576	; 0x6000
60001228:	e3a02000 	mov	r2, #0
6000122c:	e3011150 	movw	r1, #4432	; 0x1150
60001230:	e3461000 	movt	r1, #24576	; 0x6000
60001234:	e3a00000 	mov	r0, #0
60001238:	ebfffcb2 	bl	60000508 <ygos_tcb_create>
6000123c:	e3023e8c 	movw	r3, #11916	; 0x2e8c
60001240:	e3463000 	movt	r3, #24576	; 0x6000
60001244:	e3a02000 	mov	r2, #0
60001248:	e301119c 	movw	r1, #4508	; 0x119c
6000124c:	e3461000 	movt	r1, #24576	; 0x6000
60001250:	e3a00001 	mov	r0, #1
60001254:	ebfffcab 	bl	60000508 <ygos_tcb_create>
60001258:	ebfffe37 	bl	60000b3c <ygos_start>
6000125c:	eafffffe 	b	6000125c <main+0x74>

60001260 <vector_fiq>:
60001260:	ebfffffe 	bl	60001260 <vector_fiq>
60001264:	eafffffe 	b	60001264 <vector_fiq+0x4>
60001268:	e320f000 	nop	{0}
6000126c:	e320f000 	nop	{0}
60001270:	e320f000 	nop	{0}
60001274:	e320f000 	nop	{0}
60001278:	e320f000 	nop	{0}
6000127c:	e320f000 	nop	{0}

60001280 <vector_undef>:
60001280:	ebfffffe 	bl	60001280 <vector_undef>
60001284:	eafffffe 	b	60001284 <vector_undef+0x4>
60001288:	e320f000 	nop	{0}
6000128c:	e320f000 	nop	{0}
60001290:	e320f000 	nop	{0}
60001294:	e320f000 	nop	{0}
60001298:	e320f000 	nop	{0}
6000129c:	e320f000 	nop	{0}

600012a0 <vector_pabt>:
600012a0:	ebfffffe 	bl	600012a0 <vector_pabt>
600012a4:	eafffffe 	b	600012a4 <vector_pabt+0x4>
600012a8:	e320f000 	nop	{0}
600012ac:	e320f000 	nop	{0}
600012b0:	e320f000 	nop	{0}
600012b4:	e320f000 	nop	{0}
600012b8:	e320f000 	nop	{0}
600012bc:	e320f000 	nop	{0}

600012c0 <vector_dabt>:
600012c0:	ebfffffe 	bl	600012c0 <vector_dabt>
600012c4:	eafffffe 	b	600012c4 <vector_dabt+0x4>
600012c8:	e320f000 	nop	{0}
600012cc:	e320f000 	nop	{0}
600012d0:	e320f000 	nop	{0}
600012d4:	e320f000 	nop	{0}
600012d8:	e320f000 	nop	{0}
600012dc:	e320f000 	nop	{0}

600012e0 <vector_resv>:
600012e0:	ebfffffe 	bl	600012e0 <vector_resv>
600012e4:	eafffffe 	b	600012e4 <vector_resv+0x4>

600012e8 <os_task_switch>:
600012e8:	e92d4000 	stmfd	sp!, {lr}
600012ec:	e92d5fff 	push	{r0, r1, r2, r3, r4, r5, r6, r7, r8, r9, sl, fp, ip, lr}
600012f0:	e10f4000 	mrs	r4, CPSR
600012f4:	e31e0001 	tst	lr, #1
600012f8:	13844020 	orrne	r4, r4, #32
600012fc:	e92d0010 	stmfd	sp!, {r4}
60001300:	e59f303c 	ldr	r3, [pc, #60]	; 60001344 <context_switch+0x18>
60001304:	e5930000 	ldr	r0, [r3]
60001308:	e580d000 	str	sp, [r0]
6000130c:	e59f0034 	ldr	r0, [pc, #52]	; 60001348 <context_switch+0x1c>
60001310:	e59f1034 	ldr	r1, [pc, #52]	; 6000134c <context_switch+0x20>
60001314:	e5d12000 	ldrb	r2, [r1]
60001318:	e5c02000 	strb	r2, [r0]
6000131c:	e59f0020 	ldr	r0, [pc, #32]	; 60001344 <context_switch+0x18>
60001320:	e59f1028 	ldr	r1, [pc, #40]	; 60001350 <context_switch+0x24>
60001324:	e5912000 	ldr	r2, [r1]
60001328:	e5802000 	str	r2, [r0]

6000132c <context_switch>:
6000132c:	e59f401c 	ldr	r4, [pc, #28]	; 60001350 <context_switch+0x24>
60001330:	e5941000 	ldr	r1, [r4]
60001334:	e591d000 	ldr	sp, [r1]
60001338:	e8bd0010 	ldmfd	sp!, {r4}
6000133c:	e16ff004 	msr	SPSR_fsxc, r4
60001340:	e8fddfff 	ldm	sp!, {r0, r1, r2, r3, r4, r5, r6, r7, r8, r9, sl, fp, ip, lr, pc}^
60001344:	6000226c 	andvs	r2, r0, ip, ror #4
60001348:	60002bf0 	strdvs	r2, [r0], -r0
6000134c:	60002c74 	andvs	r2, r0, r4, ror ip
60001350:	60002c78 	andvs	r2, r0, r8, ror ip

Disassembly of section .rodata:

60001354 <bitmap>:
60001354:	00010000 	andeq	r0, r1, r0
60001358:	00010002 	andeq	r0, r1, r2
6000135c:	00010003 	andeq	r0, r1, r3
60001360:	00010002 	andeq	r0, r1, r2
60001364:	00010004 	andeq	r0, r1, r4
60001368:	00010002 	andeq	r0, r1, r2
6000136c:	00010003 	andeq	r0, r1, r3
60001370:	00010002 	andeq	r0, r1, r2
60001374:	00010005 	andeq	r0, r1, r5
60001378:	00010002 	andeq	r0, r1, r2
6000137c:	00010003 	andeq	r0, r1, r3
60001380:	00010002 	andeq	r0, r1, r2
60001384:	00010004 	andeq	r0, r1, r4
60001388:	00010002 	andeq	r0, r1, r2
6000138c:	00010003 	andeq	r0, r1, r3
60001390:	00010002 	andeq	r0, r1, r2
60001394:	00010006 	andeq	r0, r1, r6
60001398:	00010002 	andeq	r0, r1, r2
6000139c:	00010003 	andeq	r0, r1, r3
600013a0:	00010002 	andeq	r0, r1, r2
600013a4:	00010004 	andeq	r0, r1, r4
600013a8:	00010002 	andeq	r0, r1, r2
600013ac:	00010003 	andeq	r0, r1, r3
600013b0:	00010002 	andeq	r0, r1, r2
600013b4:	00010005 	andeq	r0, r1, r5
600013b8:	00010002 	andeq	r0, r1, r2
600013bc:	00010003 	andeq	r0, r1, r3
600013c0:	00010002 	andeq	r0, r1, r2
600013c4:	00010004 	andeq	r0, r1, r4
600013c8:	00010002 	andeq	r0, r1, r2
600013cc:	00010003 	andeq	r0, r1, r3
600013d0:	00010002 	andeq	r0, r1, r2
600013d4:	00010007 	andeq	r0, r1, r7
600013d8:	00010002 	andeq	r0, r1, r2
600013dc:	00010003 	andeq	r0, r1, r3
600013e0:	00010002 	andeq	r0, r1, r2
600013e4:	00010004 	andeq	r0, r1, r4
600013e8:	00010002 	andeq	r0, r1, r2
600013ec:	00010003 	andeq	r0, r1, r3
600013f0:	00010002 	andeq	r0, r1, r2
600013f4:	00010005 	andeq	r0, r1, r5
600013f8:	00010002 	andeq	r0, r1, r2
600013fc:	00010003 	andeq	r0, r1, r3
60001400:	00010002 	andeq	r0, r1, r2
60001404:	00010004 	andeq	r0, r1, r4
60001408:	00010002 	andeq	r0, r1, r2
6000140c:	00010003 	andeq	r0, r1, r3
60001410:	00010002 	andeq	r0, r1, r2
60001414:	00010006 	andeq	r0, r1, r6
60001418:	00010002 	andeq	r0, r1, r2
6000141c:	00010003 	andeq	r0, r1, r3
60001420:	00010002 	andeq	r0, r1, r2
60001424:	00010004 	andeq	r0, r1, r4
60001428:	00010002 	andeq	r0, r1, r2
6000142c:	00010003 	andeq	r0, r1, r3
60001430:	00010002 	andeq	r0, r1, r2
60001434:	00010005 	andeq	r0, r1, r5
60001438:	00010002 	andeq	r0, r1, r2
6000143c:	00010003 	andeq	r0, r1, r3
60001440:	00010002 	andeq	r0, r1, r2
60001444:	00010004 	andeq	r0, r1, r4
60001448:	00010002 	andeq	r0, r1, r2
6000144c:	00010003 	andeq	r0, r1, r3
60001450:	00010002 	andeq	r0, r1, r2

Disassembly of section .data:

60001454 <__ctors_end__>:
	...

Disassembly of section .bss:

60002054 <ygos_os_runing>:
60002054:	00000000 	andeq	r0, r0, r0

60002058 <task_ready_value>:
60002058:	00000000 	andeq	r0, r0, r0

6000205c <ygos_tick>:
6000205c:	00000000 	andeq	r0, r0, r0

60002060 <idle_task_stack>:
	...

60002260 <idle_task_count>:
60002260:	00000000 	andeq	r0, r0, r0

60002264 <task1_flag>:
60002264:	00000000 	andeq	r0, r0, r0

60002268 <task2_flag>:
60002268:	00000000 	andeq	r0, r0, r0

6000226c <ygos_tcb_current>:
6000226c:	00000000 	andeq	r0, r0, r0

60002270 <tcb_table>:
	...

60002bf0 <ygos_prio_current>:
60002bf0:	00000000 	andeq	r0, r0, r0

60002bf4 <tcb_prio_table>:
	...

60002c74 <ygos_prio_hig_ready>:
60002c74:	00000000 	andeq	r0, r0, r0

60002c78 <ygos_tcb_high_ready>:
60002c78:	00000000 	andeq	r0, r0, r0

60002c7c <ygos_interrupt_nest>:
60002c7c:	00000000 	andeq	r0, r0, r0

60002c80 <ygos_tcb_list>:
	...

60002c88 <ygos_tcb_free_list>:
	...

60002c90 <task2_stack>:
	...

60002e90 <task1_stack>:
	...

60003090 <sem_mavlink1>:
	...

6000309c <sem_mavlink2>:
	...

Disassembly of section .comment:

00000000 <.comment>:
   0:	3a434347 	bcc	10d0d24 <RT_IRQ_STACK_PGSZ+0x10d0524>
   4:	4e472820 	cdpmi	8, 4, cr2, cr7, cr0, {1}
   8:	6f542055 	svcvs	0x00542055
   c:	20736c6f 	rsbscs	r6, r3, pc, ror #24
  10:	20726f66 	rsbscs	r6, r2, r6, ror #30
  14:	204d5241 	subcs	r5, sp, r1, asr #4
  18:	65626d45 	strbvs	r6, [r2, #-3397]!	; 0xfffff2bb
  1c:	64656464 	strbtvs	r6, [r5], #-1124	; 0xfffffb9c
  20:	6f725020 	svcvs	0x00725020
  24:	73736563 	cmnvc	r3, #415236096	; 0x18c00000
  28:	2973726f 	ldmdbcs	r3!, {r0, r1, r2, r3, r5, r6, r9, ip, sp, lr}^
  2c:	342e3520 	strtcc	r3, [lr], #-1312	; 0xfffffae0
  30:	3220312e 	eorcc	r3, r0, #-2147483637	; 0x8000000b
  34:	30363130 	eorscc	r3, r6, r0, lsr r1
  38:	20393036 	eorscs	r3, r9, r6, lsr r0
  3c:	6c657228 	sfmvs	f7, 2, [r5], #-160	; 0xffffff60
  40:	65736165 	ldrbvs	r6, [r3, #-357]!	; 0xfffffe9b
  44:	415b2029 	cmpmi	fp, r9, lsr #32
  48:	652f4d52 	strvs	r4, [pc, #-3410]!	; fffff2fe <__bss_end+0x9fffc256>
  4c:	6465626d 	strbtvs	r6, [r5], #-621	; 0xfffffd93
  50:	2d646564 	cfstr64cs	mvdx6, [r4, #-400]!	; 0xfffffe70
  54:	72622d35 	rsbvc	r2, r2, #3392	; 0xd40
  58:	68636e61 	stmdavs	r3!, {r0, r5, r6, r9, sl, fp, sp, lr}^
  5c:	76657220 	strbtvc	r7, [r5], -r0, lsr #4
  60:	6f697369 	svcvs	0x00697369
  64:	3332206e 	teqcc	r2, #110	; 0x6e
  68:	35313737 	ldrcc	r3, [r1, #-1847]!	; 0xfffff8c9
  6c:	Address 0x0000006c is out of bounds.


Disassembly of section .ARM.attributes:

00000000 <.ARM.attributes>:
   0:	00002a41 	andeq	r2, r0, r1, asr #20
   4:	61656100 	cmnvs	r5, r0, lsl #2
   8:	01006962 	tsteq	r0, r2, ror #18
   c:	00000020 	andeq	r0, r0, r0, lsr #32
  10:	412d3705 			; <UNDEFINED> instruction: 0x412d3705
  14:	070a0600 	streq	r0, [sl, -r0, lsl #12]
  18:	09010841 	stmdbeq	r1, {r0, r6, fp}
  1c:	14041202 	strne	r1, [r4], #-514	; 0xfffffdfe
  20:	17011501 	strne	r1, [r1, -r1, lsl #10]
  24:	1a011803 	bne	46038 <RT_IRQ_STACK_PGSZ+0x45838>
  28:	Address 0x00000028 is out of bounds.


Disassembly of section .debug_line:

00000000 <.debug_line>:
   0:	00000054 	andeq	r0, r0, r4, asr r0
   4:	003a0002 	eorseq	r0, sl, r2
   8:	01020000 	mrseq	r0, (UNDEF: 2)
   c:	000d0efb 	strdeq	r0, [sp], -fp
  10:	01010101 	tsteq	r1, r1, lsl #2
  14:	01000000 	mrseq	r0, (UNDEF: 0)
  18:	2e010000 	cdpcs	0, 0, cr0, cr1, cr0, {0}
  1c:	2e2e2f2e 	cdpcs	15, 2, cr2, cr14, cr14, {1}
  20:	6372612f 	cmnvs	r2, #-1073741813	; 0xc000000b
  24:	72612f68 	rsbvc	r2, r1, #104, 30	; 0x1a0
  28:	72612f6d 	rsbvc	r2, r1, #436	; 0x1b4
  2c:	2d37766d 	ldccs	6, cr7, [r7, #-436]!	; 0xfffffe4c
  30:	76000061 	strvc	r0, [r0], -r1, rrx
  34:	6f746365 	svcvs	0x00746365
  38:	63675f72 	cmnvs	r7, #456	; 0x1c8
  3c:	00532e63 	subseq	r2, r3, r3, ror #28
  40:	00000001 	andeq	r0, r0, r1
  44:	00020500 	andeq	r0, r2, r0, lsl #10
  48:	18600000 	stmdane	r0!, {}^	; <UNPREDICTABLE>
  4c:	2f2f2f2f 	svccs	0x002f2f2f
  50:	022f2f2f 	eoreq	r2, pc, #47, 30	; 0xbc
  54:	01010012 	tsteq	r1, r2, lsl r0
  58:	00000095 	muleq	r0, r5, r0
  5c:	00390002 	eorseq	r0, r9, r2
  60:	01020000 	mrseq	r0, (UNDEF: 2)
  64:	000d0efb 	strdeq	r0, [sp], -fp
  68:	01010101 	tsteq	r1, r1, lsl #2
  6c:	01000000 	mrseq	r0, (UNDEF: 0)
  70:	2e010000 	cdpcs	0, 0, cr0, cr1, cr0, {0}
  74:	2e2e2f2e 	cdpcs	15, 2, cr2, cr14, cr14, {1}
  78:	6372612f 	cmnvs	r2, #-1073741813	; 0xc000000b
  7c:	72612f68 	rsbvc	r2, r1, #104, 30	; 0x1a0
  80:	72612f6d 	rsbvc	r2, r1, #436	; 0x1b4
  84:	2d37766d 	ldccs	6, cr7, [r7, #-436]!	; 0xfffffe4c
  88:	73000061 	movwvc	r0, #97	; 0x61
  8c:	74726174 	ldrbtvc	r6, [r2], #-372	; 0xfffffe8c
  90:	6363675f 	cmnvs	r3, #24903680	; 0x17c0000
  94:	0100532e 	tsteq	r0, lr, lsr #6
  98:	00000000 	andeq	r0, r0, r0
  9c:	00400205 	subeq	r0, r0, r5, lsl #4
  a0:	26036000 	strcs	r6, [r3], -r0
  a4:	2f2f2f01 	svccs	0x002f2f01
  a8:	2f2f3131 	svccs	0x002f3131
  ac:	312f2f31 			; <UNDEFINED> instruction: 0x312f2f31
  b0:	2f2f312f 	svccs	0x002f312f
  b4:	2f2f2f2f 	svccs	0x002f2f2f
  b8:	314f322f 	cmpcc	pc, pc, lsr #4
  bc:	312f2f31 			; <UNDEFINED> instruction: 0x312f2f31
  c0:	2f312f2f 	svccs	0x00312f2f
  c4:	2f2f312f 	svccs	0x002f312f
  c8:	48032f31 	stmdami	r3, {r0, r4, r5, r8, r9, sl, fp, sp}
  cc:	2f362f2e 	svccs	0x00362f2e
  d0:	022e1303 	eoreq	r1, lr, #201326592	; 0xc000000
  d4:	01010002 	tsteq	r1, r2
  d8:	60020500 	andvs	r0, r2, r0, lsl #10
  dc:	03600012 	cmneq	r0, #18
  e0:	2f0100f9 	svccs	0x000100f9
  e4:	2fdb2fdc 	svccs	0x00db2fdc
  e8:	2fdb2fdb 	svccs	0x00db2fdb
  ec:	01000202 	tsteq	r0, r2, lsl #4
  f0:	00008701 	andeq	r8, r0, r1, lsl #14
  f4:	3a000200 	bcc	8fc <RT_IRQ_STACK_PGSZ+0xfc>
  f8:	02000000 	andeq	r0, r0, #0
  fc:	0d0efb01 	vstreq	d15, [lr, #-4]
 100:	01010100 	mrseq	r0, (UNDEF: 17)
 104:	00000001 	andeq	r0, r0, r1
 108:	01000001 	tsteq	r0, r1
 10c:	2e2f2e2e 	cdpcs	14, 2, cr2, cr15, cr14, {1}
 110:	72612f2e 	rsbvc	r2, r1, #46, 30	; 0xb8
 114:	612f6863 			; <UNDEFINED> instruction: 0x612f6863
 118:	612f6d72 			; <UNDEFINED> instruction: 0x612f6d72
 11c:	37766d72 			; <UNDEFINED> instruction: 0x37766d72
 120:	0000612d 	andeq	r6, r0, sp, lsr #2
 124:	74697773 	strbtvc	r7, [r9], #-1907	; 0xfffff88d
 128:	675f6863 	ldrbvs	r6, [pc, -r3, ror #16]
 12c:	532e6363 			; <UNDEFINED> instruction: 0x532e6363
 130:	00000100 	andeq	r0, r0, r0, lsl #2
 134:	02050000 	andeq	r0, r5, #0
 138:	600000f0 	strdvs	r0, [r0], -r0	; <UNPREDICTABLE>
 13c:	2f011103 	svccs	0x00011103
 140:	2e0c032f 	cdpcs	3, 0, cr0, cr12, cr15, {1}
 144:	2e09032f 	cdpcs	3, 0, cr0, cr9, cr15, {1}
 148:	2b2f2f2f 	blcs	bcbe0c <RT_IRQ_STACK_PGSZ+0xbcb60c>
 14c:	01000202 	tsteq	r0, r2, lsl #4
 150:	02050001 	andeq	r0, r5, #1
 154:	600012e8 	andvs	r1, r0, r8, ror #5
 158:	2f013c03 	svccs	0x00013c03
 15c:	2f2f2f31 	svccs	0x002f2f31
 160:	312f2f30 			; <UNDEFINED> instruction: 0x312f2f30
 164:	312f2f2f 			; <UNDEFINED> instruction: 0x312f2f2f
 168:	312f2f2f 			; <UNDEFINED> instruction: 0x312f2f2f
 16c:	2f2f2f2f 	svccs	0x002f2f2f
 170:	2e6a032f 	cdpcs	3, 6, cr0, cr10, cr15, {1}
 174:	02342f33 	eorseq	r2, r4, #51, 30	; 0xcc
 178:	01010002 	tsteq	r1, r2
 17c:	00000083 	andeq	r0, r0, r3, lsl #1
 180:	00590002 	subseq	r0, r9, r2
 184:	01020000 	mrseq	r0, (UNDEF: 2)
 188:	000d0efb 	strdeq	r0, [sp], -fp
 18c:	01010101 	tsteq	r1, r1, lsl #2
 190:	01000000 	mrseq	r0, (UNDEF: 0)
 194:	2e010000 	cdpcs	0, 0, cr0, cr1, cr0, {0}
 198:	2e2e2f2e 	cdpcs	15, 2, cr2, cr14, cr14, {1}
 19c:	6372612f 	cmnvs	r2, #-1073741813	; 0xc000000b
 1a0:	72612f68 	rsbvc	r2, r1, #104, 30	; 0x1a0
 1a4:	72612f6d 	rsbvc	r2, r1, #436	; 0x1b4
 1a8:	2d37766d 	ldccs	6, cr7, [r7, #-436]!	; 0xfffffe4c
 1ac:	2e2e0061 	cdpcs	0, 2, cr0, cr14, cr1, {3}
 1b0:	2f2e2e2f 	svccs	0x002e2e2f
 1b4:	6c636e69 	stclvs	14, cr6, [r3], #-420	; 0xfffffe5c
 1b8:	2f656475 	svccs	0x00656475
 1bc:	736f6779 	cmnvc	pc, #31719424	; 0x1e40000
 1c0:	62696c2f 	rsbvs	r6, r9, #12032	; 0x2f00
 1c4:	73000063 	movwvc	r0, #99	; 0x63
 1c8:	6b636174 	blvs	18d87a0 <RT_IRQ_STACK_PGSZ+0x18d7fa0>
 1cc:	0100632e 	tsteq	r0, lr, lsr #6
 1d0:	74730000 	ldrbtvc	r0, [r3], #-0
 1d4:	746e6964 	strbtvc	r6, [lr], #-2404	; 0xfffff69c
 1d8:	0200682e 	andeq	r6, r0, #3014656	; 0x2e0000
 1dc:	00000000 	andeq	r0, r0, r0
 1e0:	01180205 	tsteq	r8, r5, lsl #4
 1e4:	10036000 	andne	r6, r3, r0
 1e8:	674dda01 	strbvs	sp, [sp, -r1, lsl #20]
 1ec:	bbbbbbbb 	bllt	feeef0e0 <__bss_end+0x9eeec038>
 1f0:	bbbbbbbb 	bllt	feeef0e4 <__bss_end+0x9eeec03c>
 1f4:	bbbbbbbb 	bllt	feeef0e8 <__bss_end+0x9eeec040>
 1f8:	d883bdbb 	stmle	r3, {r0, r1, r3, r4, r5, r7, r8, sl, fp, ip, sp, pc}
 1fc:	08022fbc 	stmdaeq	r2, {r2, r3, r4, r5, r7, r8, r9, sl, fp, sp}
 200:	68010100 	stmdavs	r1, {r8}
 204:	02000001 	andeq	r0, r0, #1
 208:	00009300 	andeq	r9, r0, r0, lsl #6
 20c:	fb010200 	blx	40a16 <RT_IRQ_STACK_PGSZ+0x40216>
 210:	01000d0e 	tsteq	r0, lr, lsl #26
 214:	00010101 	andeq	r0, r1, r1, lsl #2
 218:	00010000 	andeq	r0, r1, r0
 21c:	2e2e0100 	sufcse	f0, f6, f0
 220:	2f2e2e2f 	svccs	0x002e2e2f
 224:	6c636e69 	stclvs	14, cr6, [r3], #-420	; 0xfffffe5c
 228:	2f656475 	svccs	0x00656475
 22c:	736f6779 	cmnvc	pc, #31719424	; 0x1e40000
 230:	2f2e2e00 	svccs	0x002e2e00
 234:	6b2f2e2e 	blvs	bcbaf4 <RT_IRQ_STACK_PGSZ+0xbcb2f4>
 238:	656e7265 	strbvs	r7, [lr, #-613]!	; 0xfffffd9b
 23c:	2e2e006c 	cdpcs	0, 2, cr0, cr14, cr12, {3}
 240:	2f2e2e2f 	svccs	0x002e2e2f
 244:	6c636e69 	stclvs	14, cr6, [r3], #-420	; 0xfffffe5c
 248:	2f656475 	svccs	0x00656475
 24c:	736f6779 	cmnvc	pc, #31719424	; 0x1e40000
 250:	62696c2f 	rsbvs	r6, r9, #12032	; 0x2f00
 254:	2e2e0063 	cdpcs	0, 2, cr0, cr14, cr3, {3}
 258:	2f2e2e2f 	svccs	0x002e2e2f
 25c:	6c636e69 	stclvs	14, cr6, [r3], #-420	; 0xfffffe5c
 260:	2f656475 	svccs	0x00656475
 264:	736f6779 	cmnvc	pc, #31719424	; 0x1e40000
 268:	0073662f 	rsbseq	r6, r3, pc, lsr #12
 26c:	73696c00 	cmnvc	r9, #0, 24
 270:	00682e74 	rsbeq	r2, r8, r4, ror lr
 274:	63000001 	movwvs	r0, #1
 278:	2e65726f 	cdpcs	2, 6, cr7, cr5, cr15, {3}
 27c:	00020063 	andeq	r0, r2, r3, rrx
 280:	64747300 	ldrbtvs	r7, [r4], #-768	; 0xfffffd00
 284:	2e746e69 	cdpcs	14, 7, cr6, cr4, cr9, {3}
 288:	00030068 	andeq	r0, r3, r8, rrx
 28c:	2e736600 	cdpcs	6, 7, cr6, cr3, cr0, {0}
 290:	00040068 	andeq	r0, r4, r8, rrx
 294:	6f747200 	svcvs	0x00747200
 298:	00682e73 	rsbeq	r2, r8, r3, ror lr
 29c:	00000001 	andeq	r0, r0, r1
 2a0:	f0020500 			; <UNDEFINED> instruction: 0xf0020500
 2a4:	03600002 	cmneq	r0, #2
 2a8:	6783011f 	usada8vs	r3, pc, r1, r0	; <UNPREDICTABLE>
 2ac:	820f0367 	andhi	r0, pc, #-1677721599	; 0x9c000001
 2b0:	bb88d783 	bllt	fe2360c4 <__bss_end+0x9e23301c>
 2b4:	67676767 	strbvs	r6, [r7, -r7, ror #14]!
 2b8:	6abb9f86 	bvs	feee80d8 <__bss_end+0x9eee5030>
 2bc:	8a67679f 	bhi	19da140 <RT_IRQ_STACK_PGSZ+0x19d9940>
 2c0:	8383d783 	orrhi	sp, r3, #34340864	; 0x20c0000
 2c4:	849f836a 	ldrhi	r8, [pc], #874	; 2cc <I_Bit+0x24c>
 2c8:	699f836a 	ldmibvs	pc, {r1, r3, r5, r6, r8, r9, pc}	; <UNPREDICTABLE>
 2cc:	0302042f 	movweq	r0, #9263	; 0x242f
 2d0:	68db6656 	ldmvs	fp, {r1, r2, r4, r6, r9, sl, sp, lr}^
 2d4:	846a6883 	strbthi	r6, [sl], #-2179	; 0xfffff77d
 2d8:	69a168bc 	stmibvs	r1!, {r2, r3, r4, r5, r7, fp, sp, lr}
 2dc:	6a4c4c85 	bvs	13134f8 <RT_IRQ_STACK_PGSZ+0x1312cf8>
 2e0:	02006968 	andeq	r6, r0, #104, 18	; 0x1a0000
 2e4:	00670304 	rsbeq	r0, r7, r4, lsl #6
 2e8:	08030402 	stmdaeq	r3, {r1, sl}
 2ec:	04020073 	streq	r0, [r2], #-115	; 0xffffff8d
 2f0:	06660601 	strbteq	r0, [r6], -r1, lsl #12
 2f4:	836a676b 	cmnhi	sl, #28049408	; 0x1ac0000
 2f8:	4c865908 	stcmi	9, cr5, [r6], {8}
 2fc:	08bbf5bb 	ldmeq	fp!, {r0, r1, r3, r4, r5, r7, r8, sl, ip, sp, lr, pc}
 300:	3f08bb3f 	svccc	0x0008bb3f
 304:	2f2408bb 	svccs	0x002408bb
 308:	75088386 	strvc	r8, [r8, #-902]	; 0xfffffc7a
 30c:	67a46786 	strvs	r6, [r4, r6, lsl #15]!
 310:	667903d7 			; <UNDEFINED> instruction: 0x667903d7
 314:	a4674e36 	strbtge	r4, [r7], #-3638	; 0xfffff1ca
 318:	30a0d767 	adccc	sp, r0, r7, ror #14
 31c:	03667503 	cmneq	r6, #12582912	; 0xc00000
 320:	684e2e0c 	stmdavs	lr, {r2, r3, r9, sl, fp, sp}^
 324:	a0684b4c 	rsbge	r4, r8, ip, asr #22
 328:	a068686a 	rsbge	r6, r8, sl, ror #16
 32c:	f33e0830 	vceq.i<illegal width 64>	d0, d14, d16
 330:	6b6a4b31 	blvs	1a92ffc <RT_IRQ_STACK_PGSZ+0x1a927fc>
 334:	a34cd767 	movtge	sp, #51047	; 0xc767
 338:	836783bb 	cmnhi	r7, #-335544318	; 0xec000002
 33c:	6885859f 	stmvs	r5, {r0, r1, r2, r3, r4, r7, r8, sl, pc}
 340:	31846a84 	orrcc	r6, r4, r4, lsl #21
 344:	02040200 	andeq	r0, r4, #0, 4
 348:	004a6803 	subeq	r6, sl, r3, lsl #16
 34c:	06010402 	streq	r0, [r1], -r2, lsl #8
 350:	03d20682 	bicseq	r0, r2, #136314880	; 0x8200000
 354:	6b4e2e1f 	blvs	138bbd8 <RT_IRQ_STACK_PGSZ+0x138b3d8>
 358:	2f4c8367 	svccs	0x004c8367
 35c:	30a04b6a 	adccc	r4, r0, sl, ror #22
 360:	bd3e08bc 	ldclt	8, cr0, [lr, #-752]!	; 0xfffffd10
 364:	a04b4e30 	subge	r4, fp, r0, lsr lr
 368:	04023031 	streq	r3, [r2], #-49	; 0xffffffcf
 36c:	71010100 	mrsvc	r0, (UNDEF: 17)
 370:	02000000 	andeq	r0, r0, #0
 374:	00004e00 	andeq	r4, r0, r0, lsl #28
 378:	fb010200 	blx	40b82 <RT_IRQ_STACK_PGSZ+0x40382>
 37c:	01000d0e 	tsteq	r0, lr, lsl #26
 380:	00010101 	andeq	r0, r1, r1, lsl #2
 384:	00010000 	andeq	r0, r1, r0
 388:	2e2e0100 	sufcse	f0, f6, f0
 38c:	2f2e2e2f 	svccs	0x002e2e2f
 390:	6e72656b 	cdpvs	5, 7, cr6, cr2, cr11, {3}
 394:	2e006c65 	cdpcs	12, 0, cr6, cr0, cr5, {3}
 398:	2e2e2f2e 	cdpcs	15, 2, cr2, cr14, cr14, {1}
 39c:	636e692f 	cmnvs	lr, #770048	; 0xbc000
 3a0:	6564756c 	strbvs	r7, [r4, #-1388]!	; 0xfffffa94
 3a4:	6f67792f 	svcvs	0x0067792f
 3a8:	696c2f73 	stmdbvs	ip!, {r0, r1, r4, r5, r6, r8, r9, sl, fp, sp}^
 3ac:	00006362 	andeq	r6, r0, r2, ror #6
 3b0:	656c6469 	strbvs	r6, [ip, #-1129]!	; 0xfffffb97
 3b4:	0100632e 	tsteq	r0, lr, lsr #6
 3b8:	74730000 	ldrbtvc	r0, [r3], #-0
 3bc:	746e6964 	strbtvc	r6, [lr], #-2404	; 0xfffff69c
 3c0:	0200682e 	andeq	r6, r0, #3014656	; 0x2e0000
 3c4:	00000000 	andeq	r0, r0, r0
 3c8:	0bec0205 	bleq	ffb00be4 <__bss_end+0x9fafdb3c>
 3cc:	09036000 	stmdbeq	r3, {sp, lr}
 3d0:	04020001 	streq	r0, [r2], #-1
 3d4:	02008501 	andeq	r8, r0, #4194304	; 0x400000
 3d8:	33d70104 	bicscc	r0, r7, #4, 2
 3dc:	024bd74c 	subeq	sp, fp, #76, 14	; 0x1300000
 3e0:	01010004 	tsteq	r1, r4
 3e4:	000000b4 	strheq	r0, [r0], -r4
 3e8:	00940002 	addseq	r0, r4, r2
 3ec:	01020000 	mrseq	r0, (UNDEF: 2)
 3f0:	000d0efb 	strdeq	r0, [sp], -fp
 3f4:	01010101 	tsteq	r1, r1, lsl #2
 3f8:	01000000 	mrseq	r0, (UNDEF: 0)
 3fc:	2e010000 	cdpcs	0, 0, cr0, cr1, cr0, {0}
 400:	2e2e2f2e 	cdpcs	15, 2, cr2, cr14, cr14, {1}
 404:	72656b2f 	rsbvc	r6, r5, #48128	; 0xbc00
 408:	006c656e 	rsbeq	r6, ip, lr, ror #10
 40c:	2e2f2e2e 	cdpcs	14, 2, cr2, cr15, cr14, {1}
 410:	6e692f2e 	cdpvs	15, 6, cr2, cr9, cr14, {1}
 414:	64756c63 	ldrbtvs	r6, [r5], #-3171	; 0xfffff39d
 418:	67792f65 	ldrbvs	r2, [r9, -r5, ror #30]!
 41c:	6c2f736f 	stcvs	3, cr7, [pc], #-444	; 268 <I_Bit+0x1e8>
 420:	00636269 	rsbeq	r6, r3, r9, ror #4
 424:	2e2f2e2e 	cdpcs	14, 2, cr2, cr15, cr14, {1}
 428:	6e692f2e 	cdpvs	15, 6, cr2, cr9, cr14, {1}
 42c:	64756c63 	ldrbtvs	r6, [r5], #-3171	; 0xfffff39d
 430:	67792f65 	ldrbvs	r2, [r9, -r5, ror #30]!
 434:	2e00736f 	cdpcs	3, 0, cr7, cr0, cr15, {3}
 438:	2e2e2f2e 	cdpcs	15, 2, cr2, cr14, cr14, {1}
 43c:	636e692f 	cmnvs	lr, #770048	; 0xbc000
 440:	6564756c 	strbvs	r7, [r4, #-1388]!	; 0xfffffa94
 444:	6f67792f 	svcvs	0x0067792f
 448:	73662f73 	cmnvc	r6, #460	; 0x1cc
 44c:	6c730000 	ldclvs	0, cr0, [r3], #-0
 450:	2e706565 	cdpcs	5, 7, cr6, cr0, cr5, {3}
 454:	00010063 	andeq	r0, r1, r3, rrx
 458:	64747300 	ldrbtvs	r7, [r4], #-768	; 0xfffffd00
 45c:	2e746e69 	cdpcs	14, 7, cr6, cr4, cr9, {3}
 460:	00020068 	andeq	r0, r2, r8, rrx
 464:	73696c00 	cmnvc	r9, #0, 24
 468:	00682e74 	rsbeq	r2, r8, r4, ror lr
 46c:	66000003 	strvs	r0, [r0], -r3
 470:	00682e73 	rsbeq	r2, r8, r3, ror lr
 474:	72000004 	andvc	r0, r0, #4
 478:	2e736f74 	mrccs	15, 3, r6, cr3, cr4, {3}
 47c:	00030068 	andeq	r0, r3, r8, rrx
 480:	05000000 	streq	r0, [r0, #-0]
 484:	000c5002 	andeq	r5, ip, r2
 488:	a2851760 	addge	r1, r5, #96, 14	; 0x1800000
 48c:	9fa06867 	svcls	0x00a06867
 490:	4a74034d 	bmi	1d011cc <RT_IRQ_STACK_PGSZ+0x1d009cc>
 494:	022e0e03 	eoreq	r0, lr, #3, 28	; 0x30
 498:	01010004 	tsteq	r1, r4
 49c:	00000101 	andeq	r0, r0, r1, lsl #2
 4a0:	008f0002 	addeq	r0, pc, r2
 4a4:	01020000 	mrseq	r0, (UNDEF: 2)
 4a8:	000d0efb 	strdeq	r0, [sp], -fp
 4ac:	01010101 	tsteq	r1, r1, lsl #2
 4b0:	01000000 	mrseq	r0, (UNDEF: 0)
 4b4:	2e010000 	cdpcs	0, 0, cr0, cr1, cr0, {0}
 4b8:	2e2e2f2e 	cdpcs	15, 2, cr2, cr14, cr14, {1}
 4bc:	636e692f 	cmnvs	lr, #770048	; 0xbc000
 4c0:	6564756c 	strbvs	r7, [r4, #-1388]!	; 0xfffffa94
 4c4:	6f67792f 	svcvs	0x0067792f
 4c8:	2e2e0073 	mcrcs	0, 1, r0, cr14, cr3, {3}
 4cc:	2f2e2e2f 	svccs	0x002e2e2f
 4d0:	00637069 	rsbeq	r7, r3, r9, rrx
 4d4:	2e2f2e2e 	cdpcs	14, 2, cr2, cr15, cr14, {1}
 4d8:	6e692f2e 	cdpvs	15, 6, cr2, cr9, cr14, {1}
 4dc:	64756c63 	ldrbtvs	r6, [r5], #-3171	; 0xfffff39d
 4e0:	67792f65 	ldrbvs	r2, [r9, -r5, ror #30]!
 4e4:	6c2f736f 	stcvs	3, cr7, [pc], #-444	; 330 <I_Bit+0x2b0>
 4e8:	00636269 	rsbeq	r6, r3, r9, ror #4
 4ec:	2e2f2e2e 	cdpcs	14, 2, cr2, cr15, cr14, {1}
 4f0:	6e692f2e 	cdpvs	15, 6, cr2, cr9, cr14, {1}
 4f4:	64756c63 	ldrbtvs	r6, [r5], #-3171	; 0xfffff39d
 4f8:	67792f65 	ldrbvs	r2, [r9, -r5, ror #30]!
 4fc:	662f736f 	strtvs	r7, [pc], -pc, ror #6
 500:	6c000073 	stcvs	0, cr0, [r0], {115}	; 0x73
 504:	2e747369 	cdpcs	3, 7, cr7, cr4, cr9, {3}
 508:	00010068 	andeq	r0, r1, r8, rrx
 50c:	6d657300 	stclvs	3, cr7, [r5, #-0]
 510:	0200632e 	andeq	r6, r0, #-1207959552	; 0xb8000000
 514:	74730000 	ldrbtvc	r0, [r3], #-0
 518:	746e6964 	strbtvc	r6, [lr], #-2404	; 0xfffff69c
 51c:	0300682e 	movweq	r6, #2094	; 0x82e
 520:	73660000 	cmnvc	r6, #0
 524:	0400682e 	streq	r6, [r0], #-2094	; 0xfffff7d2
 528:	74720000 	ldrbtvc	r0, [r2], #-0
 52c:	682e736f 	stmdavs	lr!, {r0, r1, r2, r3, r5, r6, r8, r9, ip, sp, lr}
 530:	00000100 	andeq	r0, r0, r0, lsl #2
 534:	02050000 	andeq	r0, r5, #0
 538:	60000cd0 	ldrdvs	r0, [r0], -r0	; <UNPREDICTABLE>
 53c:	83011f03 	movwhi	r1, #7939	; 0x1f03
 540:	0f036767 	svceq	0x00036767
 544:	88d78382 	ldmhi	r7, {r1, r7, r8, r9, pc}^
 548:	676767bb 			; <UNDEFINED> instruction: 0x676767bb
 54c:	bb9f8667 	bllt	fe7e1ef0 <__bss_end+0x9e7dee48>
 550:	67679f6a 	strbvs	r9, [r7, -sl, ror #30]!
 554:	83d7838a 	bicshi	r8, r7, #671088642	; 0x28000002
 558:	9f836a83 	svcls	0x00836a83
 55c:	9f836a84 	svcls	0x00836a84
 560:	02042f69 	andeq	r2, r4, #420	; 0x1a4
 564:	667f9c03 	ldrbtvs	r9, [pc], -r3, lsl #24
 568:	0402009f 	streq	r0, [r2], #-159	; 0xffffff61
 56c:	06660601 	strbteq	r0, [r6], -r1, lsl #12
 570:	2f858369 	svccs	0x00858369
 574:	a02fa169 	eorge	sl, pc, r9, ror #2
 578:	4d4b2108 	stfmie	f2, [fp, #-32]	; 0xffffffe0
 57c:	4da1a1a0 	stfmid	f2, [r1, #640]!	; 0x280
 580:	4c30a1a1 	ldfmid	f2, [r0], #-644	; 0xfffffd7c
 584:	30866983 	addcc	r6, r6, r3, lsl #19
 588:	69679fd7 	stmdbvs	r7!, {r0, r1, r2, r4, r6, r7, r8, r9, sl, fp, ip, pc}^
 58c:	68858569 	stmvs	r5, {r0, r3, r5, r6, r8, sl, pc}
 590:	30846868 	addcc	r6, r4, r8, ror #16
 594:	082f4f4b 	stmdaeq	pc!, {r0, r1, r3, r6, r8, r9, sl, fp, lr}	; <UNPREDICTABLE>
 598:	2f4c4d21 	svccs	0x004c4d21
 59c:	01000602 	tsteq	r0, r2, lsl #12
 5a0:	0000b201 	andeq	fp, r0, r1, lsl #4
 5a4:	68000200 	stmdavs	r0, {r9}
 5a8:	02000000 	andeq	r0, r0, #0
 5ac:	0d0efb01 	vstreq	d15, [lr, #-4]
 5b0:	01010100 	mrseq	r0, (UNDEF: 17)
 5b4:	00000001 	andeq	r0, r0, r1
 5b8:	01000001 	tsteq	r0, r1
 5bc:	2e2f2e2e 	cdpcs	14, 2, cr2, cr15, cr14, {1}
 5c0:	6e692f2e 	cdpvs	15, 6, cr2, cr9, cr14, {1}
 5c4:	64756c63 	ldrbtvs	r6, [r5], #-3171	; 0xfffff39d
 5c8:	67792f65 	ldrbvs	r2, [r9, -r5, ror #30]!
 5cc:	6c2f736f 	stcvs	3, cr7, [pc], #-444	; 418 <SVC_Stack_Size+0x18>
 5d0:	00636269 	rsbeq	r6, r3, r9, ror #4
 5d4:	2e2f2e2e 	cdpcs	14, 2, cr2, cr15, cr14, {1}
 5d8:	6e692f2e 	cdpvs	15, 6, cr2, cr9, cr14, {1}
 5dc:	64756c63 	ldrbtvs	r6, [r5], #-3171	; 0xfffff39d
 5e0:	67792f65 	ldrbvs	r2, [r9, -r5, ror #30]!
 5e4:	0000736f 	andeq	r7, r0, pc, ror #6
 5e8:	6e69616d 	powvsez	f6, f1, #5.0
 5ec:	0000632e 	andeq	r6, r0, lr, lsr #6
 5f0:	74730000 	ldrbtvc	r0, [r3], #-0
 5f4:	746e6964 	strbtvc	r6, [lr], #-2404	; 0xfffff69c
 5f8:	0100682e 	tsteq	r0, lr, lsr #16
 5fc:	696c0000 	stmdbvs	ip!, {}^	; <UNPREDICTABLE>
 600:	682e7473 	stmdavs	lr!, {r0, r1, r4, r5, r6, sl, ip, sp, lr}
 604:	00000200 	andeq	r0, r0, r0, lsl #4
 608:	736f7472 	cmnvc	pc, #1912602624	; 0x72000000
 60c:	0200682e 	andeq	r6, r0, #3014656	; 0x2e0000
 610:	00000000 	andeq	r0, r0, r0
 614:	11500205 	cmpne	r0, r5, lsl #4
 618:	14036000 	strne	r6, [r3], #-0
 61c:	04020001 	streq	r0, [r2], #-1
 620:	02008501 	andeq	r8, r0, #4194304	; 0x400000
 624:	00830104 	addeq	r0, r3, r4, lsl #2
 628:	d7010402 	strle	r0, [r1, -r2, lsl #8]
 62c:	01040200 	mrseq	r0, R12_usr
 630:	02003367 	andeq	r3, r0, #-1677721599	; 0x9c000001
 634:	00850104 	addeq	r0, r5, r4, lsl #2
 638:	67010402 	strvs	r0, [r1, -r2, lsl #8]
 63c:	01040200 	mrseq	r0, R12_usr
 640:	040200d7 	streq	r0, [r2], #-215	; 0xffffff29
 644:	9f328301 	svcls	0x00328301
 648:	d7318583 	ldrle	r8, [r1, -r3, lsl #11]!
 64c:	040200d9 	streq	r0, [r2], #-217	; 0xffffff27
 650:	02023301 	andeq	r3, r2, #67108864	; 0x4000000
 654:	Address 0x00000654 is out of bounds.


Disassembly of section .debug_info:

00000000 <.debug_info>:
       0:	00000087 	andeq	r0, r0, r7, lsl #1
       4:	00000002 	andeq	r0, r0, r2
       8:	01040000 	mrseq	r0, (UNDEF: 4)
       c:	00000000 	andeq	r0, r0, r0
      10:	60000000 	andvs	r0, r0, r0
      14:	60000040 	andvs	r0, r0, r0, asr #32
      18:	2e2f2e2e 	cdpcs	14, 2, cr2, cr15, cr14, {1}
      1c:	72612f2e 	rsbvc	r2, r1, #46, 30	; 0xb8
      20:	612f6863 			; <UNDEFINED> instruction: 0x612f6863
      24:	612f6d72 			; <UNDEFINED> instruction: 0x612f6d72
      28:	37766d72 			; <UNDEFINED> instruction: 0x37766d72
      2c:	762f612d 	strtvc	r6, [pc], -sp, lsr #2
      30:	6f746365 	svcvs	0x00746365
      34:	63675f72 	cmnvs	r7, #456	; 0x1c8
      38:	00532e63 	subseq	r2, r3, r3, ror #28
      3c:	6d6f682f 	stclvs	8, cr6, [pc, #-188]!	; ffffff88 <__bss_end+0x9fffcee0>
      40:	61792f65 	cmnvs	r9, r5, ror #30
      44:	6e61676e 	cdpvs	7, 6, cr6, cr1, cr14, {3}
      48:	6f772f67 	svcvs	0x00772f67
      4c:	672f6b72 			; <UNDEFINED> instruction: 0x672f6b72
      50:	75687469 	strbvc	r7, [r8, #-1129]!	; 0xfffffb97
      54:	72705f62 	rsbsvc	r5, r0, #392	; 0x188
      58:	792f6a6f 	stmdbvc	pc!, {r0, r1, r2, r3, r5, r6, r9, fp, sp, lr}	; <UNPREDICTABLE>
      5c:	2f534f67 	svccs	0x00534f67
      60:	2f637273 	svccs	0x00637273
      64:	72616f62 	rsbvc	r6, r1, #392	; 0x188
      68:	65712f64 	ldrbvs	r2, [r1, #-3940]!	; 0xfffff09c
      6c:	762d756d 	strtvc	r7, [sp], -sp, ror #10
      70:	72707865 	rsbsvc	r7, r0, #6619136	; 0x650000
      74:	2d737365 	ldclcs	3, cr7, [r3, #-404]!	; 0xfffffe6c
      78:	47003961 	strmi	r3, [r0, -r1, ror #18]
      7c:	4120554e 			; <UNDEFINED> instruction: 0x4120554e
      80:	2e322053 	mrccs	0, 1, r2, cr2, cr3, {2}
      84:	302e3632 	eorcc	r3, lr, r2, lsr r6
      88:	82800100 	addhi	r0, r0, #0, 2
      8c:	02000000 	andeq	r0, r0, #0
      90:	00001400 	andeq	r1, r0, r0, lsl #8
      94:	58010400 	stmdapl	r1, {sl}
      98:	00000000 	andeq	r0, r0, r0
      9c:	2e000000 	cdpcs	0, 0, cr0, cr0, cr0, {0}
      a0:	2e2e2f2e 	cdpcs	15, 2, cr2, cr14, cr14, {1}
      a4:	6372612f 	cmnvs	r2, #-1073741813	; 0xc000000b
      a8:	72612f68 	rsbvc	r2, r1, #104, 30	; 0x1a0
      ac:	72612f6d 	rsbvc	r2, r1, #436	; 0x1b4
      b0:	2d37766d 	ldccs	6, cr7, [r7, #-436]!	; 0xfffffe4c
      b4:	74732f61 	ldrbtvc	r2, [r3], #-3937	; 0xfffff09f
      b8:	5f747261 	svcpl	0x00747261
      bc:	2e636367 	cdpcs	3, 6, cr6, cr3, cr7, {3}
      c0:	682f0053 	stmdavs	pc!, {r0, r1, r4, r6}	; <UNPREDICTABLE>
      c4:	2f656d6f 	svccs	0x00656d6f
      c8:	676e6179 			; <UNDEFINED> instruction: 0x676e6179
      cc:	2f676e61 	svccs	0x00676e61
      d0:	6b726f77 	blvs	1c9beb4 <RT_IRQ_STACK_PGSZ+0x1c9b6b4>
      d4:	7469672f 	strbtvc	r6, [r9], #-1839	; 0xfffff8d1
      d8:	5f627568 	svcpl	0x00627568
      dc:	6a6f7270 	bvs	1bdcaa4 <RT_IRQ_STACK_PGSZ+0x1bdc2a4>
      e0:	4f67792f 	svcmi	0x0067792f
      e4:	72732f53 	rsbsvc	r2, r3, #332	; 0x14c
      e8:	6f622f63 	svcvs	0x00622f63
      ec:	2f647261 	svccs	0x00647261
      f0:	756d6571 	strbvc	r6, [sp, #-1393]!	; 0xfffffa8f
      f4:	7865762d 	stmdavc	r5!, {r0, r2, r3, r5, r9, sl, ip, sp, lr}^
      f8:	73657270 	cmnvc	r5, #112, 4
      fc:	39612d73 	stmdbcc	r1!, {r0, r1, r4, r5, r6, r8, sl, fp, sp}^
     100:	554e4700 	strbpl	r4, [lr, #-1792]	; 0xfffff900
     104:	20534120 	subscs	r4, r3, r0, lsr #2
     108:	36322e32 			; <UNDEFINED> instruction: 0x36322e32
     10c:	0100302e 	tsteq	r0, lr, lsr #32
     110:	00008380 	andeq	r8, r0, r0, lsl #7
     114:	26000200 	strcs	r0, [r0], -r0, lsl #4
     118:	04000000 	streq	r0, [r0], #-0
     11c:	0000f101 	andeq	pc, r0, r1, lsl #2
     120:	00002000 	andeq	r2, r0, r0
     124:	2f2e2e00 	svccs	0x002e2e00
     128:	612f2e2e 			; <UNDEFINED> instruction: 0x612f2e2e
     12c:	2f686372 	svccs	0x00686372
     130:	2f6d7261 	svccs	0x006d7261
     134:	766d7261 	strbtvc	r7, [sp], -r1, ror #4
     138:	2f612d37 	svccs	0x00612d37
     13c:	74697773 	strbtvc	r7, [r9], #-1907	; 0xfffff88d
     140:	675f6863 	ldrbvs	r6, [pc, -r3, ror #16]
     144:	532e6363 			; <UNDEFINED> instruction: 0x532e6363
     148:	6f682f00 	svcvs	0x00682f00
     14c:	792f656d 	stmdbvc	pc!, {r0, r2, r3, r5, r6, r8, sl, sp, lr}	; <UNPREDICTABLE>
     150:	61676e61 	cmnvs	r7, r1, ror #28
     154:	772f676e 	strvc	r6, [pc, -lr, ror #14]!
     158:	2f6b726f 	svccs	0x006b726f
     15c:	68746967 	ldmdavs	r4!, {r0, r1, r2, r5, r6, r8, fp, sp, lr}^
     160:	705f6275 	subsvc	r6, pc, r5, ror r2	; <UNPREDICTABLE>
     164:	2f6a6f72 	svccs	0x006a6f72
     168:	534f6779 	movtpl	r6, #63353	; 0xf779
     16c:	6372732f 	cmnvs	r2, #-1140850688	; 0xbc000000
     170:	616f622f 	cmnvs	pc, pc, lsr #4
     174:	712f6472 			; <UNDEFINED> instruction: 0x712f6472
     178:	2d756d65 	ldclcs	13, cr6, [r5, #-404]!	; 0xfffffe6c
     17c:	70786576 	rsbsvc	r6, r8, r6, ror r5
     180:	73736572 	cmnvc	r3, #478150656	; 0x1c800000
     184:	0039612d 	eorseq	r6, r9, sp, lsr #2
     188:	20554e47 	subscs	r4, r5, r7, asr #28
     18c:	32205341 	eorcc	r5, r0, #67108865	; 0x4000001
     190:	2e36322e 	cdpcs	2, 3, cr3, cr6, cr14, {1}
     194:	80010030 	andhi	r0, r1, r0, lsr r0
     198:	000000ef 	andeq	r0, r0, pc, ror #1
     19c:	00380002 	eorseq	r0, r8, r2
     1a0:	01040000 	mrseq	r0, (UNDEF: 4)
     1a4:	00000077 	andeq	r0, r0, r7, ror r0
     1a8:	00011e0c 	andeq	r1, r1, ip, lsl #28
     1ac:	00000500 	andeq	r0, r0, r0, lsl #10
     1b0:	00011800 	andeq	r1, r1, r0, lsl #16
     1b4:	0002f060 	andeq	pc, r2, r0, rrx
     1b8:	00017c60 	andeq	r7, r1, r0, ror #24
     1bc:	08010200 	stmdaeq	r1, {r9}
     1c0:	00000044 	andeq	r0, r0, r4, asr #32
     1c4:	64070202 	strvs	r0, [r7], #-514	; 0xfffffdfe
     1c8:	03000000 	movweq	r0, #0
     1cc:	00000115 	andeq	r0, r0, r5, lsl r1
     1d0:	003e0d02 	eorseq	r0, lr, r2, lsl #26
     1d4:	04020000 	streq	r0, [r2], #-0
     1d8:	00005707 	andeq	r5, r0, r7, lsl #14
     1dc:	08010200 	stmdaeq	r1, {r9}
     1e0:	0000004d 	andeq	r0, r0, sp, asr #32
     1e4:	0000fa03 	andeq	pc, r0, r3, lsl #20
     1e8:	57100200 	ldrpl	r0, [r0, -r0, lsl #4]
     1ec:	02000000 	andeq	r0, r0, #0
     1f0:	010b0502 	tsteq	fp, r2, lsl #10
     1f4:	04040000 	streq	r0, [r4], #-0
     1f8:	746e6905 	strbtvc	r6, [lr], #-2309	; 0xfffff6fb
     1fc:	07040200 	streq	r0, [r4, -r0, lsl #4]
     200:	00000052 	andeq	r0, r0, r2, asr r0
     204:	04020405 	streq	r0, [r2], #-1029	; 0xfffffbfb
     208:	00010207 	andeq	r0, r1, r7, lsl #4
     20c:	33040600 	movwcc	r0, #17920	; 0x4600
     210:	07000000 	streq	r0, [r0, -r0]
     214:	00014201 	andeq	r4, r1, r1, lsl #4
     218:	01100100 	tsteq	r0, r0, lsl #2
     21c:	00000075 	andeq	r0, r0, r5, ror r0
     220:	60000118 	andvs	r0, r0, r8, lsl r1
     224:	600002f0 	strdvs	r0, [r0], -r0	; <UNPREDICTABLE>
     228:	00000000 	andeq	r0, r0, r0
     22c:	0000e001 	andeq	lr, r0, r1
     230:	00000800 	andeq	r0, r0, r0, lsl #16
     234:	10010000 	andne	r0, r1, r0
     238:	000000ec 	andeq	r0, r0, ip, ror #1
     23c:	086c9102 	stmdaeq	ip!, {r1, r8, ip, pc}^
     240:	00000157 	andeq	r0, r0, r7, asr r1
     244:	006c1001 	rsbeq	r1, ip, r1
     248:	91020000 	mrsls	r0, (UNDEF: 2)
     24c:	013d0868 	teqeq	sp, r8, ror #16
     250:	10010000 	andne	r0, r1, r0
     254:	00000075 	andeq	r0, r0, r5, ror r0
     258:	09649102 	stmdbeq	r4!, {r1, r8, ip, pc}^
     25c:	0074706f 	rsbseq	r7, r4, pc, rrx
     260:	004c1001 	subeq	r1, ip, r1
     264:	91020000 	mrsls	r0, (UNDEF: 2)
     268:	74730a62 	ldrbtvc	r0, [r3], #-2658	; 0xfffff59e
     26c:	1201006b 	andne	r0, r1, #107	; 0x6b
     270:	00000075 	andeq	r0, r0, r5, ror r0
     274:	00749102 	rsbseq	r9, r4, r2, lsl #2
     278:	00ec010b 	rsceq	r0, ip, fp, lsl #2
     27c:	6c0c0000 	stcvs	0, cr0, [ip], {-0}
     280:	00000000 	andeq	r0, r0, r0
     284:	00e00406 	rsceq	r0, r0, r6, lsl #8
     288:	6a000000 	bvs	290 <I_Bit+0x210>
     28c:	0200000a 	andeq	r0, r0, #10
     290:	0000d800 	andeq	sp, r0, r0, lsl #16
     294:	77010400 	strvc	r0, [r1, -r0, lsl #8]
     298:	0c000000 	stceq	0, cr0, [r0], {-0}
     29c:	00000401 	andeq	r0, r0, r1, lsl #8
     2a0:	00000005 	andeq	r0, r0, r5
     2a4:	600002f0 	strdvs	r0, [r0], -r0	; <UNPREDICTABLE>
     2a8:	60000bec 	andvs	r0, r0, ip, ror #23
     2ac:	00000203 	andeq	r0, r0, r3, lsl #4
     2b0:	00023702 	andeq	r3, r2, r2, lsl #14
     2b4:	300b0300 	andcc	r0, fp, r0, lsl #6
     2b8:	03000000 	movweq	r0, #0
     2bc:	00440801 	subeq	r0, r4, r1, lsl #16
     2c0:	02030000 	andeq	r0, r3, #0
     2c4:	00006407 	andeq	r6, r0, r7, lsl #8
     2c8:	01150200 	tsteq	r5, r0, lsl #4
     2cc:	0d030000 	stceq	0, cr0, [r3, #-0]
     2d0:	00000049 	andeq	r0, r0, r9, asr #32
     2d4:	57070403 	strpl	r0, [r7, -r3, lsl #8]
     2d8:	02000000 	andeq	r0, r0, #0
     2dc:	00000238 	andeq	r0, r0, r8, lsr r2
     2e0:	005b0f03 	subseq	r0, fp, r3, lsl #30
     2e4:	01030000 	mrseq	r0, (UNDEF: 3)
     2e8:	00004d08 	andeq	r4, r0, r8, lsl #26
     2ec:	05020300 	streq	r0, [r2, #-768]	; 0xfffffd00
     2f0:	0000010b 	andeq	r0, r0, fp, lsl #2
     2f4:	69050404 	stmdbvs	r5, {r2, sl}
     2f8:	0300746e 	movweq	r7, #1134	; 0x46e
     2fc:	00520704 	subseq	r0, r2, r4, lsl #14
     300:	a3050000 	movwge	r0, #20480	; 0x5000
     304:	08000001 	stmdaeq	r0, {r0}
     308:	00a01401 	adceq	r1, r0, r1, lsl #8
     30c:	ae060000 	cdpge	0, 0, cr0, cr6, cr0, {0}
     310:	01000004 	tsteq	r0, r4
     314:	0000a015 	andeq	sl, r0, r5, lsl r0
     318:	00230200 	eoreq	r0, r3, r0, lsl #4
     31c:	00045306 	andeq	r5, r4, r6, lsl #6
     320:	a0150100 	andsge	r0, r5, r0, lsl #2
     324:	02000000 	andeq	r0, r0, #0
     328:	07000423 	streq	r0, [r0, -r3, lsr #8]
     32c:	00007704 	andeq	r7, r0, r4, lsl #14
     330:	034f0200 	movteq	r0, #61952	; 0xf200
     334:	29040000 	stmdbcs	r4, {}	; <UNPREDICTABLE>
     338:	00000030 	andeq	r0, r0, r0, lsr r0
     33c:	0002e902 	andeq	lr, r2, r2, lsl #18
     340:	492a0400 	stmdbmi	sl!, {sl}
     344:	05000000 	streq	r0, [r0, #-0]
     348:	0000046f 	andeq	r0, r0, pc, ror #8
     34c:	0f350414 	svceq	0x00350414
     350:	06000001 	streq	r0, [r0], -r1
     354:	00000415 	andeq	r0, r0, r5, lsl r4
     358:	016a3704 	cmneq	sl, r4, lsl #14
     35c:	23020000 	movwcs	r0, #8192	; 0x2000
     360:	015d0600 	cmpeq	sp, r0, lsl #12
     364:	38040000 	stmdacc	r4, {}	; <UNPREDICTABLE>
     368:	0000016a 	andeq	r0, r0, sl, ror #2
     36c:	06042302 	streq	r2, [r4], -r2, lsl #6
     370:	0000029e 	muleq	r0, lr, r2
     374:	01903904 	orrseq	r3, r0, r4, lsl #18
     378:	23020000 	movwcs	r0, #8192	; 0x2000
     37c:	01930608 	orrseq	r0, r3, r8, lsl #12
     380:	3a040000 	bcc	100388 <RT_IRQ_STACK_PGSZ+0xffb88>
     384:	000001bb 			; <UNDEFINED> instruction: 0x000001bb
     388:	060c2302 	streq	r2, [ip], -r2, lsl #6
     38c:	0000035c 	andeq	r0, r0, ip, asr r3
     390:	01db3b04 	bicseq	r3, fp, r4, lsl #22
     394:	23020000 	movwcs	r0, #8192	; 0x2000
     398:	01080010 	tsteq	r8, r0, lsl r0
     39c:	00000069 	andeq	r0, r0, r9, rrx
     3a0:	0000011f 	andeq	r0, r0, pc, lsl r1
     3a4:	00011f09 	andeq	r1, r1, r9, lsl #30
     3a8:	04070000 	streq	r0, [r7], #-0
     3ac:	00000125 	andeq	r0, r0, r5, lsr #2
     3b0:	00020005 	andeq	r0, r2, r5
     3b4:	5a041000 	bpl	1043bc <RT_IRQ_STACK_PGSZ+0x103bbc>
     3b8:	0000016a 	andeq	r0, r0, sl, ror #2
     3bc:	00031906 	andeq	r1, r3, r6, lsl #18
     3c0:	695c0400 	ldmdbvs	ip, {sl}^
     3c4:	02000000 	andeq	r0, r0, #0
     3c8:	b6060023 	strlt	r0, [r6], -r3, lsr #32
     3cc:	04000003 	streq	r0, [r0], #-3
     3d0:	0003585d 	andeq	r5, r3, sp, asr r8
     3d4:	04230200 	strteq	r0, [r3], #-512	; 0xfffffe00
     3d8:	0003af06 	andeq	sl, r3, r6, lsl #30
     3dc:	5e5e0400 	cdppl	4, 5, cr0, cr14, cr0, {0}
     3e0:	02000003 	andeq	r0, r0, #3
     3e4:	56060823 	strpl	r0, [r6], -r3, lsr #16
     3e8:	04000003 	streq	r0, [r0], #-3
     3ec:	0000b15f 	andeq	fp, r0, pc, asr r1
     3f0:	0c230200 	sfmeq	f0, 4, [r3], #-0
     3f4:	0f040700 	svceq	0x00040700
     3f8:	08000001 	stmdaeq	r0, {r0}
     3fc:	00006901 	andeq	r6, r0, r1, lsl #18
     400:	00018a00 	andeq	r8, r1, r0, lsl #20
     404:	011f0900 	tsteq	pc, r0, lsl #18
     408:	8a090000 	bhi	240410 <RT_IRQ_STACK_PGSZ+0x23fc10>
     40c:	09000001 	stmdbeq	r0, {r0}
     410:	00000069 	andeq	r0, r0, r9, rrx
     414:	5b040700 	blpl	10201c <RT_IRQ_STACK_PGSZ+0x10181c>
     418:	07000000 	streq	r0, [r0, -r0]
     41c:	00017004 	andeq	r7, r1, r4
     420:	69010800 	stmdbvs	r1, {fp}
     424:	b0000000 	andlt	r0, r0, r0
     428:	09000001 	stmdbeq	r0, {r0}
     42c:	0000011f 	andeq	r0, r0, pc, lsl r1
     430:	0001b009 	andeq	fp, r1, r9
     434:	00690900 	rsbeq	r0, r9, r0, lsl #18
     438:	07000000 	streq	r0, [r0, -r0]
     43c:	0001b604 	andeq	fp, r1, r4, lsl #12
     440:	005b0a00 	subseq	r0, fp, r0, lsl #20
     444:	04070000 	streq	r0, [r7], #-0
     448:	00000196 	muleq	r0, r6, r1
     44c:	00690108 	rsbeq	r0, r9, r8, lsl #2
     450:	01db0000 	bicseq	r0, fp, r0
     454:	1f090000 	svcne	0x00090000
     458:	09000001 	stmdbeq	r0, {r0}
     45c:	00000069 	andeq	r0, r0, r9, rrx
     460:	00007009 	andeq	r7, r0, r9
     464:	04070000 	streq	r0, [r7], #-0
     468:	000001c1 	andeq	r0, r0, r1, asr #3
     46c:	0001da0b 	andeq	sp, r1, fp, lsl #20
     470:	47040400 	strmi	r0, [r4, -r0, lsl #8]
     474:	00000204 	andeq	r0, r0, r4, lsl #4
     478:	0004c30c 	andeq	ip, r4, ip, lsl #6
     47c:	04490400 	strbeq	r0, [r9], #-1024	; 0xfffffc00
     480:	0c000002 	stceq	0, cr0, [r0], {2}
     484:	00000287 	andeq	r0, r0, r7, lsl #5
     488:	02e04a04 	rsceq	r4, r0, #4, 20	; 0x4000
     48c:	07000000 	streq	r0, [r0, -r0]
     490:	00020a04 	andeq	r0, r2, r4, lsl #20
     494:	00bc0a00 	adcseq	r0, ip, r0, lsl #20
     498:	ef050000 	svc	0x00050000
     49c:	38000002 	stmdacc	r0, {r1}
     4a0:	02e08104 	rsceq	r8, r0, #4, 2
     4a4:	15060000 	strne	r0, [r6, #-0]
     4a8:	04000004 	streq	r0, [r0], #-4
     4ac:	0003da83 	andeq	sp, r3, r3, lsl #21
     4b0:	00230200 	eoreq	r0, r3, r0, lsl #4
     4b4:	00015d06 	andeq	r5, r1, r6, lsl #26
     4b8:	6a860400 	bvs	fe1814c0 <__bss_end+0x9e17e418>
     4bc:	02000001 	andeq	r0, r0, #1
     4c0:	9e060423 	cdpls	4, 0, cr0, cr6, cr3, {1}
     4c4:	04000002 	streq	r0, [r0], #-2
     4c8:	00019087 	andeq	r9, r1, r7, lsl #1
     4cc:	08230200 	stmdaeq	r3!, {r9}
     4d0:	00019306 	andeq	r9, r1, r6, lsl #6
     4d4:	bb880400 	bllt	fe2014dc <__bss_end+0x9e1fe434>
     4d8:	02000001 	andeq	r0, r0, #1
     4dc:	87060c23 	strhi	r0, [r6, -r3, lsr #24]
     4e0:	04000003 	streq	r0, [r0], #-3
     4e4:	0003fa8a 	andeq	pc, r3, sl, lsl #21
     4e8:	10230200 	eorne	r0, r3, r0, lsl #4
     4ec:	00035c06 	andeq	r5, r3, r6, lsl #24
     4f0:	db8b0400 	blle	fe2c14f8 <__bss_end+0x9e2be450>
     4f4:	02000001 	andeq	r0, r0, #1
     4f8:	9b061423 	blls	18558c <RT_IRQ_STACK_PGSZ+0x184d8c>
     4fc:	04000003 	streq	r0, [r0], #-3
     500:	00016a8d 	andeq	r6, r1, sp, lsl #21
     504:	18230200 	stmdane	r3!, {r9}
     508:	7075640d 	rsbsvc	r6, r5, sp, lsl #8
     50c:	208e0400 	addcs	r0, lr, r0, lsl #8
     510:	02000004 	andeq	r0, r0, #4
     514:	8e061c23 	cdphi	12, 0, cr1, cr6, cr3, {1}
     518:	04000002 	streq	r0, [r0], #-2
     51c:	00044690 	muleq	r4, r0, r6
     520:	20230200 	eorcs	r0, r3, r0, lsl #4
     524:	00046606 	andeq	r6, r4, r6, lsl #12
     528:	61920400 	orrsvs	r0, r2, r0, lsl #8
     52c:	02000004 	andeq	r0, r0, #4
     530:	6d062423 	cfstrsvs	mvf2, [r6, #-140]	; 0xffffff74
     534:	04000001 	streq	r0, [r0], #-1
     538:	00046194 	muleq	r4, r4, r1
     53c:	28230200 	stmdacs	r3!, {r9}
     540:	0001f606 	andeq	pc, r1, r6, lsl #12
     544:	61960400 	orrsvs	r0, r6, r0, lsl #8
     548:	02000004 	andeq	r0, r0, #4
     54c:	78062c23 	stmdavc	r6, {r0, r1, r5, sl, fp, sp}
     550:	04000003 	streq	r0, [r0], #-3
     554:	00048e98 	muleq	r4, r8, lr
     558:	30230200 	eorcc	r0, r3, r0, lsl #4
     55c:	00037606 	andeq	r7, r3, r6, lsl #12
     560:	b49a0400 	ldrlt	r0, [sl], #1024	; 0x400
     564:	02000004 	andeq	r0, r0, #4
     568:	07003423 	streq	r3, [r0, -r3, lsr #8]
     56c:	0002e604 	andeq	lr, r2, r4, lsl #12
     570:	020f0a00 	andeq	r0, pc, #0, 20
     574:	b8050000 	stmdalt	r5, {}	; <UNPREDICTABLE>
     578:	30000003 	andcc	r0, r0, r3
     57c:	03584e04 	cmpeq	r8, #4, 28	; 0x40
     580:	20060000 	andcs	r0, r6, r0
     584:	04000002 	streq	r0, [r0], #-2
     588:	0003584f 	andeq	r5, r3, pc, asr #16
     58c:	00230200 	eoreq	r0, r3, r0, lsl #4
     590:	00016306 	andeq	r6, r1, r6, lsl #6
     594:	58500400 	ldmdapl	r0, {sl}^
     598:	02000003 	andeq	r0, r0, #3
     59c:	b4060423 	strlt	r0, [r6], #-1059	; 0xfffffbdd
     5a0:	04000002 	streq	r0, [r0], #-2
     5a4:	00035e51 	andeq	r5, r3, r1, asr lr
     5a8:	08230200 	stmdaeq	r3!, {r9}
     5ac:	00034a06 	andeq	r4, r3, r6, lsl #20
     5b0:	77520400 	ldrbvc	r0, [r2, -r0, lsl #8]
     5b4:	02000000 	andeq	r0, r0, #0
     5b8:	96060c23 	strls	r0, [r6], -r3, lsr #24
     5bc:	04000002 	streq	r0, [r0], #-2
     5c0:	00006953 	andeq	r6, r0, r3, asr r9
     5c4:	14230200 	strtne	r0, [r3], #-512	; 0xfffffe00
     5c8:	0400750d 	streq	r7, [r0], #-1293	; 0xfffffaf3
     5cc:	0001e154 	andeq	lr, r1, r4, asr r1
     5d0:	18230200 	stmdane	r3!, {r9}
     5d4:	00021906 	andeq	r1, r2, r6, lsl #18
     5d8:	60550400 	subsvs	r0, r5, r0, lsl #8
     5dc:	02000003 	andeq	r0, r0, #3
     5e0:	07001c23 	streq	r1, [r0, -r3, lsr #24]
     5e4:	0002eb04 	andeq	lr, r2, r4, lsl #22
     5e8:	0f040e00 	svceq	0x00040e00
     5ec:	0000005b 	andeq	r0, r0, fp, asr r0
     5f0:	00000370 	andeq	r0, r0, r0, ror r3
     5f4:	00037010 	andeq	r7, r3, r0, lsl r0
     5f8:	03001300 	movweq	r1, #768	; 0x300
     5fc:	01020704 	tsteq	r2, r4, lsl #14
     600:	05050000 	streq	r0, [r5, #-0]
     604:	80000003 	andhi	r0, r0, r3
     608:	03926304 	orrseq	r6, r2, #4, 6	; 0x10000000
     60c:	ad060000 	stcge	0, cr0, [r6, #-0]
     610:	04000001 	streq	r0, [r0], #-1
     614:	00039265 	andeq	r9, r3, r5, ror #4
     618:	00230200 	eoreq	r0, r3, r0, lsl #4
     61c:	01250f00 			; <UNDEFINED> instruction: 0x01250f00
     620:	03a20000 			; <UNDEFINED> instruction: 0x03a20000
     624:	70100000 	andsvc	r0, r0, r0
     628:	07000003 	streq	r0, [r0, -r3]
     62c:	023f0500 	eorseq	r0, pc, #0, 10
     630:	04040000 	streq	r0, [r4], #-0
     634:	0003bb69 	andeq	fp, r3, r9, ror #22
     638:	00610d00 	rsbeq	r0, r1, r0, lsl #26
     63c:	00696a04 	rsbeq	r6, r9, r4, lsl #20
     640:	23020000 	movwcs	r0, #8192	; 0x2000
     644:	01080000 	mrseq	r0, (UNDEF: 8)
     648:	00000069 	andeq	r0, r0, r9, rrx
     64c:	000003da 	ldrdeq	r0, [r0], -sl
     650:	00011f09 	andeq	r1, r1, r9, lsl #30
     654:	01b00900 	lslseq	r0, r0, #18
     658:	69090000 	stmdbvs	r9, {}	; <UNPREDICTABLE>
     65c:	09000000 	stmdbeq	r0, {}	; <UNPREDICTABLE>
     660:	000000a6 	andeq	r0, r0, r6, lsr #1
     664:	bb040700 	bllt	10226c <RT_IRQ_STACK_PGSZ+0x101a6c>
     668:	08000003 	stmdaeq	r0, {r0, r1}
     66c:	00006901 	andeq	r6, r0, r1, lsl #18
     670:	0003fa00 	andeq	pc, r3, r0, lsl #20
     674:	011f0900 	tsteq	pc, r0, lsl #18
     678:	69090000 	stmdbvs	r9, {}	; <UNPREDICTABLE>
     67c:	09000000 	stmdbeq	r0, {}	; <UNPREDICTABLE>
     680:	00000069 	andeq	r0, r0, r9, rrx
     684:	e0040700 	and	r0, r4, r0, lsl #14
     688:	08000003 	stmdaeq	r0, {r0, r1}
     68c:	00006901 	andeq	r6, r0, r1, lsl #18
     690:	00041500 	andeq	r1, r4, r0, lsl #10
     694:	04150900 	ldreq	r0, [r5], #-2304	; 0xfffff700
     698:	1f090000 	svcne	0x00090000
     69c:	00000001 	andeq	r0, r0, r1
     6a0:	041b0407 	ldreq	r0, [fp], #-1031	; 0xfffffbf9
     6a4:	250a0000 	strcs	r0, [sl, #-0]
     6a8:	07000001 	streq	r0, [r0, -r1]
     6ac:	00040004 	andeq	r0, r4, r4
     6b0:	69010800 	stmdbvs	r1, {fp}
     6b4:	40000000 	andmi	r0, r0, r0
     6b8:	09000004 	stmdbeq	r0, {r2}
     6bc:	00000358 	andeq	r0, r0, r8, asr r3
     6c0:	0001b009 	andeq	fp, r1, r9
     6c4:	04400900 	strbeq	r0, [r0], #-2304	; 0xfffff700
     6c8:	07000000 	streq	r0, [r0, -r0]
     6cc:	0003a204 	andeq	sl, r3, r4, lsl #4
     6d0:	26040700 	strcs	r0, [r4], -r0, lsl #14
     6d4:	08000004 	stmdaeq	r0, {r2}
     6d8:	00006901 	andeq	r6, r0, r1, lsl #18
     6dc:	00046100 	andeq	r6, r4, r0, lsl #2
     6e0:	03580900 	cmpeq	r8, #0, 18
     6e4:	40090000 	andmi	r0, r9, r0
     6e8:	00000004 	andeq	r0, r0, r4
     6ec:	044c0407 	strbeq	r0, [ip], #-1031	; 0xfffffbf9
     6f0:	01080000 	mrseq	r0, (UNDEF: 8)
     6f4:	00000069 	andeq	r0, r0, r9, rrx
     6f8:	00000481 	andeq	r0, r0, r1, lsl #9
     6fc:	00035809 	andeq	r5, r3, r9, lsl #16
     700:	04810900 	streq	r0, [r1], #2304	; 0x900
     704:	88090000 	stmdahi	r9, {}	; <UNPREDICTABLE>
     708:	00000004 	andeq	r0, r0, r4
     70c:	04870407 	streq	r0, [r7], #1031	; 0x407
     710:	07110000 	ldreq	r0, [r1, -r0]
     714:	00035e04 	andeq	r5, r3, r4, lsl #28
     718:	67040700 	strvs	r0, [r4, -r0, lsl #14]
     71c:	08000004 	stmdaeq	r0, {r2}
     720:	00006901 	andeq	r6, r0, r1, lsl #18
     724:	0004ae00 	andeq	sl, r4, r0, lsl #28
     728:	035e0900 	cmpeq	lr, #0, 18
     72c:	ae090000 	cdpge	0, 0, cr0, cr9, cr0, {0}
     730:	09000004 	stmdbeq	r0, {r2}
     734:	00000049 	andeq	r0, r0, r9, asr #32
     738:	58040700 	stmdapl	r4, {r8, r9, sl}
     73c:	07000003 	streq	r0, [r0, -r3]
     740:	00049404 	andeq	r9, r4, r4, lsl #8
     744:	02c90500 	sbceq	r0, r9, #0, 10
     748:	05980000 	ldreq	r0, [r8]
     74c:	00052e27 	andeq	r2, r5, r7, lsr #28
     750:	01990600 	orrseq	r0, r9, r0, lsl #12
     754:	2a050000 	bcs	14075c <RT_IRQ_STACK_PGSZ+0x13ff5c>
     758:	0000052e 	andeq	r0, r0, lr, lsr #10
     75c:	06002302 	streq	r2, [r0], -r2, lsl #6
     760:	00000302 	andeq	r0, r0, r2, lsl #6
     764:	03772d05 	cmneq	r7, #320	; 0x140
     768:	23020000 	movwcs	r0, #8192	; 0x2000
     76c:	034a0604 	movteq	r0, #42500	; 0xa604
     770:	30050000 	andcc	r0, r5, r0
     774:	00000077 	andeq	r0, r0, r7, ror r0
     778:	01842303 	orreq	r2, r4, r3, lsl #6
     77c:	0004a906 	andeq	sl, r4, r6, lsl #18
     780:	50330500 	eorspl	r0, r3, r0, lsl #10
     784:	03000000 	movweq	r0, #0
     788:	06018c23 	streq	r8, [r1], -r3, lsr #24
     78c:	0000053b 	andeq	r0, r0, fp, lsr r5
     790:	003e3605 	eorseq	r3, lr, r5, lsl #12
     794:	23030000 	movwcs	r0, #12288	; 0x3000
     798:	c0060190 	mulgt	r6, r0, r1
     79c:	05000001 	streq	r0, [r0, #-1]
     7a0:	00002539 	andeq	r2, r0, r9, lsr r5
     7a4:	94230300 	strtls	r0, [r3], #-768	; 0xfffffd00
     7a8:	01bb0601 			; <UNDEFINED> instruction: 0x01bb0601
     7ac:	3c050000 	stccc	0, cr0, [r5], {-0}
     7b0:	00000025 	andeq	r0, r0, r5, lsr #32
     7b4:	01952303 	orrseq	r2, r5, r3, lsl #6
     7b8:	3e040700 	cdpcc	7, 0, cr0, cr4, cr0, {0}
     7bc:	12000000 	andne	r0, r0, #0
     7c0:	00000228 	andeq	r0, r0, r8, lsr #4
     7c4:	f0011f01 			; <UNDEFINED> instruction: 0xf0011f01
     7c8:	28600002 	stmdacs	r0!, {r1}^
     7cc:	44600003 	strbtmi	r0, [r0], #-3
     7d0:	01000000 	mrseq	r0, (UNDEF: 0)
     7d4:	0000055c 	andeq	r0, r0, ip, asr r5
     7d8:	00034a13 	andeq	r4, r3, r3, lsl sl
     7dc:	a01f0100 	andsge	r0, pc, r0, lsl #2
     7e0:	02000000 	andeq	r0, r0, #0
     7e4:	14007491 	strne	r7, [r0], #-1169	; 0xfffffb6f
     7e8:	000002be 			; <UNDEFINED> instruction: 0x000002be
     7ec:	69013101 	stmdbvs	r1, {r0, r8, ip, sp}
     7f0:	28000000 	stmdacs	r0, {}	; <UNPREDICTABLE>
     7f4:	64600003 	strbtvs	r0, [r0], #-3
     7f8:	88600003 	stmdahi	r0!, {r0, r1}^
     7fc:	01000000 	mrseq	r0, (UNDEF: 0)
     800:	00000588 	andeq	r0, r0, r8, lsl #11
     804:	0001a813 	andeq	sl, r1, r3, lsl r8
     808:	88310100 	ldmdahi	r1!, {r8}
     80c:	02000005 	andeq	r0, r0, #5
     810:	07007491 			; <UNDEFINED> instruction: 0x07007491
     814:	00058e04 	andeq	r8, r5, r4, lsl #28
     818:	00770a00 	rsbseq	r0, r7, r0, lsl #20
     81c:	52120000 	andspl	r0, r2, #0
     820:	01000002 	tsteq	r0, r2
     824:	03640137 	cmneq	r4, #-1073741811	; 0xc000000d
     828:	03bc6000 			; <UNDEFINED> instruction: 0x03bc6000
     82c:	00cc6000 	sbceq	r6, ip, r0
     830:	d7010000 	strle	r0, [r1, -r0]
     834:	13000005 	movwne	r0, #5
     838:	000003fc 	strdeq	r0, [r0], -ip
     83c:	00a03701 	adceq	r3, r0, r1, lsl #14
     840:	91020000 	mrsls	r0, (UNDEF: 2)
     844:	04531374 	ldrbeq	r1, [r3], #-884	; 0xfffffc8c
     848:	38010000 	stmdacc	r1, {}	; <UNPREDICTABLE>
     84c:	000000a0 	andeq	r0, r0, r0, lsr #1
     850:	13709102 	cmnne	r0, #-2147483648	; 0x80000000
     854:	000004ae 	andeq	r0, r0, lr, lsr #9
     858:	00a03901 	adceq	r3, r0, r1, lsl #18
     85c:	91020000 	mrsls	r0, (UNDEF: 2)
     860:	5815006c 	ldmdapl	r5, {r2, r3, r5, r6}
     864:	01000004 	tsteq	r0, r4
     868:	03bc0142 			; <UNDEFINED> instruction: 0x03bc0142
     86c:	03f46000 	mvnseq	r6, #0
     870:	01106000 	tsteq	r0, r0
     874:	0d010000 	stceq	0, cr0, [r1, #-0]
     878:	13000006 	movwne	r0, #6
     87c:	000003fc 	strdeq	r0, [r0], -ip
     880:	00a04201 	adceq	r4, r0, r1, lsl #4
     884:	91020000 	mrsls	r0, (UNDEF: 2)
     888:	01a81374 			; <UNDEFINED> instruction: 0x01a81374
     88c:	42010000 	andmi	r0, r1, #0
     890:	000000a0 	andeq	r0, r0, r0, lsr #1
     894:	00709102 	rsbseq	r9, r0, r2, lsl #2
     898:	0002cf12 	andeq	ip, r2, r2, lsl pc
     89c:	01480100 	mrseq	r0, (UNDEF: 88)
     8a0:	600003f4 	strdvs	r0, [r0], -r4
     8a4:	60000430 	andvs	r0, r0, r0, lsr r4
     8a8:	00000148 	andeq	r0, r0, r8, asr #2
     8ac:	00064301 	andeq	r4, r6, r1, lsl #6
     8b0:	04531300 	ldrbeq	r1, [r3], #-768	; 0xfffffd00
     8b4:	48010000 	stmdami	r1, {}	; <UNPREDICTABLE>
     8b8:	000000a0 	andeq	r0, r0, r0, lsr #1
     8bc:	13749102 	cmnne	r4, #-2147483648	; 0x80000000
     8c0:	000004ae 	andeq	r0, r0, lr, lsr #9
     8c4:	00a04801 	adceq	r4, r0, r1, lsl #16
     8c8:	91020000 	mrsls	r0, (UNDEF: 2)
     8cc:	d1150070 	tstle	r5, r0, ror r0
     8d0:	01000002 	tsteq	r0, r2
     8d4:	04300153 	ldrteq	r0, [r0], #-339	; 0xfffffead
     8d8:	04886000 	streq	r6, [r8], #0
     8dc:	018c6000 	orreq	r6, ip, r0
     8e0:	6b010000 	blvs	408e8 <RT_IRQ_STACK_PGSZ+0x400e8>
     8e4:	13000006 	movwne	r0, #6
     8e8:	000005c5 	andeq	r0, r0, r5, asr #11
     8ec:	00a05301 	adceq	r5, r0, r1, lsl #6
     8f0:	91020000 	mrsls	r0, (UNDEF: 2)
     8f4:	be150074 	mrclt	0, 0, r0, cr5, cr4, {3}
     8f8:	01000003 	tsteq	r0, r3
     8fc:	0488015b 	streq	r0, [r8], #347	; 0x15b
     900:	04c86000 	strbeq	r6, [r8], #0
     904:	01c46000 	biceq	r6, r4, r0
     908:	93010000 	movwls	r0, #4096	; 0x1000
     90c:	13000006 	movwne	r0, #6
     910:	000001a8 	andeq	r0, r0, r8, lsr #3
     914:	00a05b01 	adceq	r5, r0, r1, lsl #22
     918:	91020000 	mrsls	r0, (UNDEF: 2)
     91c:	da160074 	ble	580af4 <RT_IRQ_STACK_PGSZ+0x5802f4>
     920:	01000002 	tsteq	r0, r2
     924:	00a00163 	adceq	r0, r0, r3, ror #2
     928:	04c80000 	strbeq	r0, [r8], #0
     92c:	05086000 	streq	r6, [r8, #-0]
     930:	01fc6000 	mvnseq	r6, r0
     934:	bf010000 	svclt	0x00010000
     938:	13000006 	movwne	r0, #6
     93c:	000001a8 	andeq	r0, r0, r8, lsr #3
     940:	00a06301 	adceq	r6, r0, r1, lsl #6
     944:	91020000 	mrsls	r0, (UNDEF: 2)
     948:	01170074 	tsteq	r7, r4, ror r0
     94c:	000004b3 			; <UNDEFINED> instruction: 0x000004b3
     950:	08013f02 	stmdaeq	r1, {r1, r8, r9, sl, fp, ip, sp}
     954:	d8600005 	stmdale	r0!, {r0, r2}^
     958:	34600005 	strbtcc	r0, [r0], #-5
     95c:	01000002 	tsteq	r0, r2
     960:	0000074a 	andeq	r0, r0, sl, asr #14
     964:	0004a913 	andeq	sl, r4, r3, lsl r9
     968:	693f0200 	ldmdbvs	pc!, {r9}	; <UNPREDICTABLE>
     96c:	02000000 	andeq	r0, r0, #0
     970:	00136491 	mulseq	r3, r1, r4
     974:	02000000 	andeq	r0, r0, #0
     978:	0007563f 	andeq	r5, r7, pc, lsr r6
     97c:	60910200 	addsvs	r0, r1, r0, lsl #4
     980:	00015713 	andeq	r5, r1, r3, lsl r7
     984:	5e3f0200 	cdppl	2, 3, cr0, cr15, cr0, {0}
     988:	02000003 	andeq	r0, r0, #3
     98c:	3d135c91 	ldccc	12, cr5, [r3, #-580]	; 0xfffffdbc
     990:	02000001 	andeq	r0, r0, #1
     994:	00052e3f 	andeq	r2, r5, pc, lsr lr
     998:	58910200 	ldmpl	r1, {r9}
     99c:	0001b618 	andeq	fp, r1, r8, lsl r6
     9a0:	5c410200 	sfmpl	f0, 2, [r1], {-0}
     9a4:	02000007 	andeq	r0, r0, #7
     9a8:	73196c91 	tstvc	r9, #37120	; 0x9100
     9ac:	02006b74 	andeq	r6, r0, #116, 22	; 0x1d000
     9b0:	00052e42 	andeq	r2, r5, r2, asr #28
     9b4:	68910200 	ldmvs	r1, {r9}
     9b8:	0003db18 	andeq	sp, r3, r8, lsl fp
     9bc:	69430200 	stmdbvs	r3, {r9}^
     9c0:	02000000 	andeq	r0, r0, #0
     9c4:	c7187491 			; <UNDEFINED> instruction: 0xc7187491
     9c8:	02000003 	andeq	r0, r0, #3
     9cc:	0000a047 	andeq	sl, r0, r7, asr #32
     9d0:	70910200 	addsvc	r0, r1, r0, lsl #4
     9d4:	56011a00 	strpl	r1, [r1], -r0, lsl #20
     9d8:	09000007 	stmdbeq	r0, {r0, r1, r2}
     9dc:	0000035e 	andeq	r0, r0, lr, asr r3
     9e0:	4a040700 	bmi	1025e8 <RT_IRQ_STACK_PGSZ+0x101de8>
     9e4:	07000007 	streq	r0, [r0, -r7]
     9e8:	0004ba04 	andeq	fp, r4, r4, lsl #20
     9ec:	01c71500 	biceq	r1, r7, r0, lsl #10
     9f0:	64020000 	strvs	r0, [r2], #-0
     9f4:	0005d801 	andeq	sp, r5, r1, lsl #16
     9f8:	00065c60 	andeq	r5, r6, r0, ror #24
     9fc:	00026c60 	andeq	r6, r2, r0, ror #24
     a00:	07920100 	ldreq	r0, [r2, r0, lsl #2]
     a04:	f01b0000 			; <UNDEFINED> instruction: 0xf01b0000
     a08:	44600005 	strbtmi	r0, [r0], #-5
     a0c:	19600006 	stmdbne	r0!, {r1, r2}^
     a10:	6a020069 	bvs	80bbc <RT_IRQ_STACK_PGSZ+0x803bc>
     a14:	00000025 	andeq	r0, r0, r5, lsr #32
     a18:	00779102 	rsbseq	r9, r7, r2, lsl #2
     a1c:	24011c00 	strcs	r1, [r1], #-3072	; 0xfffff400
     a20:	02000004 	andeq	r0, r0, #4
     a24:	065c0173 			; <UNDEFINED> instruction: 0x065c0173
     a28:	06a86000 	strteq	r6, [r8], r0
     a2c:	02a46000 	adceq	r6, r4, #0
     a30:	bb010000 	bllt	40a38 <RT_IRQ_STACK_PGSZ+0x40238>
     a34:	13000007 	movwne	r0, #7
     a38:	000004a9 	andeq	r0, r0, r9, lsr #9
     a3c:	00697302 	rsbeq	r7, r9, r2, lsl #6
     a40:	91020000 	mrsls	r0, (UNDEF: 2)
     a44:	221d0074 	andscs	r0, sp, #116	; 0x74
     a48:	02000003 	andeq	r0, r0, #3
     a4c:	00690179 	rsbeq	r0, r9, r9, ror r1
     a50:	06a80000 	strteq	r0, [r8], r0
     a54:	07b86000 	ldreq	r6, [r8, r0]!
     a58:	02e86000 	rsceq	r6, r8, #0
     a5c:	1c010000 	stcne	0, cr0, [r1], {-0}
     a60:	00027001 	andeq	r7, r2, r1
     a64:	01910200 	orrseq	r0, r1, r0, lsl #4
     a68:	600007b8 			; <UNDEFINED> instruction: 0x600007b8
     a6c:	60000808 	andvs	r0, r0, r8, lsl #16
     a70:	0000032c 	andeq	r0, r0, ip, lsr #6
     a74:	0007fd01 	andeq	pc, r7, r1, lsl #26
     a78:	04a91300 	strteq	r1, [r9], #768	; 0x300
     a7c:	91020000 	mrsls	r0, (UNDEF: 2)
     a80:	00000069 	andeq	r0, r0, r9, rrx
     a84:	00749102 	rsbseq	r9, r4, r2, lsl #2
     a88:	04940117 	ldreq	r0, [r4], #279	; 0x117
     a8c:	97020000 	strls	r0, [r2, -r0]
     a90:	00080801 	andeq	r0, r8, r1, lsl #16
     a94:	00086860 	andeq	r6, r8, r0, ror #16
     a98:	00037060 	andeq	r7, r3, r0, rrx
     a9c:	08260100 	stmdaeq	r6!, {r8}
     aa0:	db180000 	blle	600aa8 <RT_IRQ_STACK_PGSZ+0x6002a8>
     aa4:	02000003 	andeq	r0, r0, #3
     aa8:	0000699c 	muleq	r0, ip, r9
     aac:	74910200 	ldrvc	r0, [r1], #512	; 0x200
     ab0:	7f011700 	svcvc	0x00011700
     ab4:	02000004 	andeq	r0, r0, #4
     ab8:	086801a5 	stmdaeq	r8!, {r0, r2, r5, r7, r8}^
     abc:	08e06000 	stmiaeq	r0!, {sp, lr}^
     ac0:	03a86000 			; <UNDEFINED> instruction: 0x03a86000
     ac4:	4f010000 	svcmi	0x00010000
     ac8:	18000008 	stmdane	r0, {r3}
     acc:	000003db 	ldrdeq	r0, [r0], -fp
     ad0:	0069ab02 	rsbeq	sl, r9, r2, lsl #22
     ad4:	91020000 	mrsls	r0, (UNDEF: 2)
     ad8:	01170074 	tsteq	r7, r4, ror r0
     adc:	000003f3 	strdeq	r0, [r0], -r3
     ae0:	e001b702 	and	fp, r1, r2, lsl #14
     ae4:	28600008 	stmdacs	r0!, {r3}^
     ae8:	e0600009 	rsb	r0, r0, r9
     aec:	01000003 	tsteq	r0, r3
     af0:	00000878 	andeq	r0, r0, r8, ror r8
     af4:	0004a918 	andeq	sl, r4, r8, lsl r9
     af8:	69ba0200 	ldmibvs	sl!, {r9}
     afc:	02000000 	andeq	r0, r0, #0
     b00:	17007491 			; <UNDEFINED> instruction: 0x17007491
     b04:	00037d01 	andeq	r7, r3, r1, lsl #26
     b08:	01c40200 	biceq	r0, r4, r0, lsl #4
     b0c:	60000928 	andvs	r0, r0, r8, lsr #18
     b10:	600009b8 			; <UNDEFINED> instruction: 0x600009b8
     b14:	00000418 	andeq	r0, r0, r8, lsl r4
     b18:	0008a101 	andeq	sl, r8, r1, lsl #2
     b1c:	03db1800 	bicseq	r1, fp, #0, 16
     b20:	c6020000 	strgt	r0, [r2], -r0
     b24:	00000069 	andeq	r0, r0, r9, rrx
     b28:	00749102 	rsbseq	r9, r4, r2, lsl #2
     b2c:	01e60117 	mvneq	r0, r7, lsl r1
     b30:	d7020000 	strle	r0, [r2, -r0]
     b34:	0009b801 	andeq	fp, r9, r1, lsl #16
     b38:	000afc60 	andeq	pc, sl, r0, ror #24
     b3c:	00045060 	andeq	r5, r4, r0, rrx
     b40:	08d80100 	ldmeq	r8, {r8}^
     b44:	b6180000 	ldrlt	r0, [r8], -r0
     b48:	02000001 	andeq	r0, r0, #1
     b4c:	00075cd9 	ldrdeq	r5, [r7], -r9
     b50:	74910200 	ldrvc	r0, [r1], #512	; 0x200
     b54:	0003db18 	andeq	sp, r3, r8, lsl fp
     b58:	69da0200 	ldmibvs	sl, {r9}^
     b5c:	02000000 	andeq	r0, r0, #0
     b60:	1e007091 	mcrne	0, 0, r7, cr0, cr1, {4}
     b64:	0003cd01 	andeq	ip, r3, r1, lsl #26
     b68:	01040200 	mrseq	r0, R12_usr
     b6c:	00003e01 	andeq	r3, r0, r1, lsl #28
     b70:	000afc00 	andeq	pc, sl, r0, lsl #24
     b74:	000b3c60 	andeq	r3, fp, r0, ror #24
     b78:	00048860 	andeq	r8, r4, r0, ror #16
     b7c:	09160100 	ldmdbeq	r6, {r8}
     b80:	3b1f0000 	blcc	7c0b88 <RT_IRQ_STACK_PGSZ+0x7c0388>
     b84:	02000003 	andeq	r0, r0, #3
     b88:	00690106 	rsbeq	r0, r9, r6, lsl #2
     b8c:	91020000 	mrsls	r0, (UNDEF: 2)
     b90:	03db1f70 	bicseq	r1, fp, #112, 30	; 0x1c0
     b94:	07020000 	streq	r0, [r2, -r0]
     b98:	00006901 	andeq	r6, r0, r1, lsl #18
     b9c:	74910200 	ldrvc	r0, [r1], #512	; 0x200
     ba0:	0e012000 	cdpeq	0, 0, cr2, cr1, cr0, {0}
     ba4:	02000003 	andeq	r0, r0, #3
     ba8:	3c010112 	stfccs	f0, [r1], {18}
     bac:	c060000b 	rsbgt	r0, r0, fp
     bb0:	c060000b 	rsbgt	r0, r0, fp
     bb4:	01000004 	tsteq	r0, r4
     bb8:	04490120 	strbeq	r0, [r9], #-288	; 0xfffffee0
     bbc:	24020000 	strcs	r0, [r2], #-0
     bc0:	0bc00101 	bleq	ff000fcc <__bss_end+0x9effdf24>
     bc4:	0bec6000 	bleq	ffb18bcc <__bss_end+0x9fb15b24>
     bc8:	04ec6000 	strbteq	r6, [ip], #0
     bcc:	21010000 	mrscs	r0, (UNDEF: 1)
     bd0:	000002a3 	andeq	r0, r0, r3, lsr #5
     bd4:	075c0502 	ldrbeq	r0, [ip, -r2, lsl #10]
     bd8:	05010000 	streq	r0, [r1, #-0]
     bdc:	00226c03 	eoreq	r6, r2, r3, lsl #24
     be0:	02052160 	andeq	r2, r5, #96, 2
     be4:	08020000 	stmdaeq	r2, {}	; <UNPREDICTABLE>
     be8:	0000075c 	andeq	r0, r0, ip, asr r7
     bec:	78030501 	stmdavc	r3, {r0, r8, sl}
     bf0:	2160002c 	cmncs	r0, ip, lsr #32
     bf4:	0000025d 	andeq	r0, r0, sp, asr r2
     bf8:	00770b02 	rsbseq	r0, r7, r2, lsl #22
     bfc:	05010000 	streq	r0, [r1, #-0]
     c00:	002c8803 	eoreq	r8, ip, r3, lsl #16
     c04:	01752160 	cmneq	r5, r0, ror #2
     c08:	17020000 	strne	r0, [r2, -r0]
     c0c:	00000025 	andeq	r0, r0, r5, lsr #32
     c10:	74030501 	strvc	r0, [r3], #-1281	; 0xfffffaff
     c14:	2160002c 	cmncs	r0, ip, lsr #32
     c18:	000003e1 	andeq	r0, r0, r1, ror #7
     c1c:	00251a02 	eoreq	r1, r5, r2, lsl #20
     c20:	05010000 	streq	r0, [r1, #-0]
     c24:	002bf003 	eoreq	pc, fp, r3
     c28:	03412160 	movteq	r2, #4448	; 0x1160
     c2c:	0e020000 	cdpeq	0, 0, cr0, cr2, cr0, {0}
     c30:	00000077 	andeq	r0, r0, r7, ror r0
     c34:	80030501 	andhi	r0, r3, r1, lsl #10
     c38:	2160002c 	cmncs	r0, ip, lsr #32
     c3c:	00000362 	andeq	r0, r0, r2, ror #6
     c40:	09c21d02 	stmibeq	r2, {r1, r8, sl, fp, ip}^
     c44:	05010000 	streq	r0, [r1, #-0]
     c48:	002c7c03 	eoreq	r7, ip, r3, lsl #24
     c4c:	00692260 	rsbeq	r2, r9, r0, ror #4
     c50:	8c210000 	stchi	0, cr0, [r1], #-0
     c54:	02000003 	andeq	r0, r0, #3
     c58:	00002520 	andeq	r2, r0, r0, lsr #10
     c5c:	03050100 	movweq	r0, #20736	; 0x5100
     c60:	60002054 	andvs	r2, r0, r4, asr r0
     c64:	0004ba0f 	andeq	fp, r4, pc, lsl #20
     c68:	0009e900 	andeq	lr, r9, r0, lsl #18
     c6c:	03701000 	cmneq	r0, #0
     c70:	000f0000 	andeq	r0, pc, r0
     c74:	00018921 	andeq	r8, r1, r1, lsr #18
     c78:	d9110200 	ldmdble	r1, {r9}
     c7c:	01000009 	tsteq	r0, r9
     c80:	22700305 	rsbscs	r0, r0, #335544320	; 0x14000000
     c84:	5c0f6000 	stcpl	0, cr6, [pc], {-0}
     c88:	0b000007 	bleq	cac <RT_IRQ_STACK_PGSZ+0x4ac>
     c8c:	1000000a 	andne	r0, r0, sl
     c90:	00000370 	andeq	r0, r0, r0, ror r3
     c94:	a021001f 	eorge	r0, r1, pc, lsl r0
     c98:	02000003 	andeq	r0, r0, #3
     c9c:	0009fb14 	andeq	pc, r9, r4, lsl fp	; <UNPREDICTABLE>
     ca0:	03050100 	movweq	r0, #20736	; 0x5100
     ca4:	60002bf4 	strdvs	r2, [r0], -r4
     ca8:	00043821 	andeq	r3, r4, r1, lsr #16
     cac:	3e230200 	cdpcc	2, 2, cr0, cr3, cr0, {0}
     cb0:	01000000 	mrseq	r0, (UNDEF: 0)
     cb4:	20580305 	subscs	r0, r8, r5, lsl #6
     cb8:	1a216000 	bne	858cc0 <RT_IRQ_STACK_PGSZ+0x8584c0>
     cbc:	02000004 	andeq	r0, r0, #4
     cc0:	00003e26 	andeq	r3, r0, r6, lsr #28
     cc4:	03050100 	movweq	r0, #20736	; 0x5100
     cc8:	6000205c 	andvs	r2, r0, ip, asr r0
     ccc:	000a510f 	andeq	r5, sl, pc, lsl #2
     cd0:	000a5100 	andeq	r5, sl, r0, lsl #2
     cd4:	03701000 	cmneq	r0, #0
     cd8:	00ff0000 	rscseq	r0, pc, r0
     cdc:	0000250a 	andeq	r2, r0, sl, lsl #10
     ce0:	024b2100 	subeq	r2, fp, #0, 2
     ce4:	2a020000 	bcs	80cec <RT_IRQ_STACK_PGSZ+0x804ec>
     ce8:	00000a68 	andeq	r0, r0, r8, ror #20
     cec:	54030501 	strpl	r0, [r3], #-1281	; 0xfffffaff
     cf0:	0a600013 	beq	1800d44 <RT_IRQ_STACK_PGSZ+0x1800544>
     cf4:	00000a41 	andeq	r0, r0, r1, asr #20
     cf8:	0000d700 	andeq	sp, r0, r0, lsl #14
     cfc:	e2000200 	and	r0, r0, #0, 4
     d00:	04000002 	streq	r0, [r0], #-2
     d04:	00007701 	andeq	r7, r0, r1, lsl #14
     d08:	050d0c00 	streq	r0, [sp, #-3072]	; 0xfffff400
     d0c:	00050000 	andeq	r0, r5, r0
     d10:	0bec0000 	bleq	ffb00d18 <__bss_end+0x9fafdc70>
     d14:	0c506000 	mraeq	r6, r0, acc0
     d18:	036f6000 	cmneq	pc, #0
     d1c:	01020000 	mrseq	r0, (UNDEF: 2)
     d20:	00004408 	andeq	r4, r0, r8, lsl #8
     d24:	07020200 	streq	r0, [r2, -r0, lsl #4]
     d28:	00000064 	andeq	r0, r0, r4, rrx
     d2c:	00011503 	andeq	r1, r1, r3, lsl #10
     d30:	3e0d0200 	cdpcc	2, 0, cr0, cr13, cr0, {0}
     d34:	02000000 	andeq	r0, r0, #0
     d38:	00570704 	subseq	r0, r7, r4, lsl #14
     d3c:	01020000 	mrseq	r0, (UNDEF: 2)
     d40:	00004d08 	andeq	r4, r0, r8, lsl #26
     d44:	05020200 	streq	r0, [r2, #-512]	; 0xfffffe00
     d48:	0000010b 	andeq	r0, r0, fp, lsl #2
     d4c:	69050404 	stmdbvs	r5, {r2, sl}
     d50:	0200746e 	andeq	r7, r0, #1845493760	; 0x6e000000
     d54:	00520704 	subseq	r0, r2, r4, lsl #14
     d58:	04050000 	streq	r0, [r5], #-0
     d5c:	02070402 	andeq	r0, r7, #33554432	; 0x2000000
     d60:	06000001 	streq	r0, [r0], -r1
     d64:	000004ed 	andeq	r0, r0, sp, ror #9
     d68:	ec010901 	stc	9, cr0, [r1], {1}
     d6c:	1c60000b 	stclne	0, cr0, [r0], #-44	; 0xffffffd4
     d70:	1860000c 	stmdane	r0!, {r2, r3}^
     d74:	01000005 	tsteq	r0, r5
     d78:	00000092 	muleq	r0, r2, r0
     d7c:	67726107 	ldrbvs	r6, [r2, -r7, lsl #2]!
     d80:	61090100 	mrsvs	r0, (UNDEF: 25)
     d84:	02000000 	andeq	r0, r0, #0
     d88:	08007491 	stmdaeq	r0, {r0, r4, r7, sl, ip, sp, lr}
     d8c:	0004c901 	andeq	ip, r4, r1, lsl #18
     d90:	01120100 	tsteq	r2, r0, lsl #2
     d94:	60000c1c 	andvs	r0, r0, ip, lsl ip
     d98:	60000c50 	andvs	r0, r0, r0, asr ip
     d9c:	00000544 	andeq	r0, r0, r4, asr #10
     da0:	00330901 	eorseq	r0, r3, r1, lsl #18
     da4:	00b80000 	adcseq	r0, r8, r0
     da8:	630a0000 	movwvs	r0, #40960	; 0xa000
     dac:	7f000000 	svcvc	0x00000000
     db0:	04fd0b00 	ldrbteq	r0, [sp], #2816	; 0xb00
     db4:	05010000 	streq	r0, [r1, #-0]
     db8:	000000a8 	andeq	r0, r0, r8, lsr #1
     dbc:	20600305 	rsbcs	r0, r0, r5, lsl #6
     dc0:	dd0b6000 	stcle	0, cr6, [fp, #-0]
     dc4:	01000004 	tsteq	r0, r4
     dc8:	00003306 	andeq	r3, r0, r6, lsl #6
     dcc:	60030500 	andvs	r0, r3, r0, lsl #10
     dd0:	00600022 	rsbeq	r0, r0, r2, lsr #32
     dd4:	000005a5 	andeq	r0, r0, r5, lsr #11
     dd8:	03800002 	orreq	r0, r0, #2
     ddc:	01040000 	mrseq	r0, (UNDEF: 4)
     de0:	00000077 	andeq	r0, r0, r7, ror r0
     de4:	0005210c 	andeq	r2, r5, ip, lsl #2
     de8:	00000500 	andeq	r0, r0, r0, lsl #10
     dec:	000c5000 	andeq	r5, ip, r0
     df0:	000cd060 	andeq	sp, ip, r0, rrx
     df4:	0003e460 	andeq	lr, r3, r0, ror #8
     df8:	02370200 	eorseq	r0, r7, #0, 4
     dfc:	0b020000 	bleq	80e04 <RT_IRQ_STACK_PGSZ+0x80604>
     e00:	00000030 	andeq	r0, r0, r0, lsr r0
     e04:	44080103 	strmi	r0, [r8], #-259	; 0xfffffefd
     e08:	03000000 	movweq	r0, #0
     e0c:	00640702 	rsbeq	r0, r4, r2, lsl #14
     e10:	15020000 	strne	r0, [r2, #-0]
     e14:	02000001 	andeq	r0, r0, #1
     e18:	0000490d 	andeq	r4, r0, sp, lsl #18
     e1c:	07040300 	streq	r0, [r4, -r0, lsl #6]
     e20:	00000057 	andeq	r0, r0, r7, asr r0
     e24:	00023802 	andeq	r3, r2, r2, lsl #16
     e28:	5b0f0200 	blpl	3c1630 <RT_IRQ_STACK_PGSZ+0x3c0e30>
     e2c:	03000000 	movweq	r0, #0
     e30:	004d0801 	subeq	r0, sp, r1, lsl #16
     e34:	02030000 	andeq	r0, r3, #0
     e38:	00010b05 	andeq	r0, r1, r5, lsl #22
     e3c:	01160200 	tsteq	r6, r0, lsl #4
     e40:	11020000 	mrsne	r0, (UNDEF: 2)
     e44:	00000074 	andeq	r0, r0, r4, ror r0
     e48:	69050404 	stmdbvs	r5, {r2, sl}
     e4c:	0300746e 	movweq	r7, #1134	; 0x46e
     e50:	00520704 	subseq	r0, r2, r4, lsl #14
     e54:	a3050000 	movwge	r0, #20480	; 0x5000
     e58:	08000001 	stmdaeq	r0, {r0}
     e5c:	00ab1403 	adceq	r1, fp, r3, lsl #8
     e60:	ae060000 	cdpge	0, 0, cr0, cr6, cr0, {0}
     e64:	03000004 	movweq	r0, #4
     e68:	0000ab15 	andeq	sl, r0, r5, lsl fp
     e6c:	00230200 	eoreq	r0, r3, r0, lsl #4
     e70:	00045306 	andeq	r5, r4, r6, lsl #6
     e74:	ab150300 	blge	541a7c <RT_IRQ_STACK_PGSZ+0x54127c>
     e78:	02000000 	andeq	r0, r0, #0
     e7c:	07000423 	streq	r0, [r0, -r3, lsr #8]
     e80:	00008204 	andeq	r8, r0, r4, lsl #4
     e84:	034f0200 	movteq	r0, #61952	; 0xf200
     e88:	29040000 	stmdbcs	r4, {}	; <UNPREDICTABLE>
     e8c:	00000030 	andeq	r0, r0, r0, lsr r0
     e90:	0002e902 	andeq	lr, r2, r2, lsl #18
     e94:	492a0400 	stmdbmi	sl!, {sl}
     e98:	05000000 	streq	r0, [r0, #-0]
     e9c:	0000046f 	andeq	r0, r0, pc, ror #8
     ea0:	1a350414 	bne	d41ef8 <RT_IRQ_STACK_PGSZ+0xd416f8>
     ea4:	06000001 	streq	r0, [r0], -r1
     ea8:	00000415 	andeq	r0, r0, r5, lsl r4
     eac:	01753704 	cmneq	r5, r4, lsl #14
     eb0:	23020000 	movwcs	r0, #8192	; 0x2000
     eb4:	015d0600 	cmpeq	sp, r0, lsl #12
     eb8:	38040000 	stmdacc	r4, {}	; <UNPREDICTABLE>
     ebc:	00000175 	andeq	r0, r0, r5, ror r1
     ec0:	06042302 	streq	r2, [r4], -r2, lsl #6
     ec4:	0000029e 	muleq	r0, lr, r2
     ec8:	019b3904 	orrseq	r3, fp, r4, lsl #18
     ecc:	23020000 	movwcs	r0, #8192	; 0x2000
     ed0:	01930608 	orrseq	r0, r3, r8, lsl #12
     ed4:	3a040000 	bcc	100edc <RT_IRQ_STACK_PGSZ+0x1006dc>
     ed8:	000001c6 	andeq	r0, r0, r6, asr #3
     edc:	060c2302 	streq	r2, [ip], -r2, lsl #6
     ee0:	0000035c 	andeq	r0, r0, ip, asr r3
     ee4:	01e63b04 	mvneq	r3, r4, lsl #22
     ee8:	23020000 	movwcs	r0, #8192	; 0x2000
     eec:	01080010 	tsteq	r8, r0, lsl r0
     ef0:	00000074 	andeq	r0, r0, r4, ror r0
     ef4:	0000012a 	andeq	r0, r0, sl, lsr #2
     ef8:	00012a09 	andeq	r2, r1, r9, lsl #20
     efc:	04070000 	streq	r0, [r7], #-0
     f00:	00000130 	andeq	r0, r0, r0, lsr r1
     f04:	00020005 	andeq	r0, r2, r5
     f08:	5a041000 	bpl	104f10 <RT_IRQ_STACK_PGSZ+0x104710>
     f0c:	00000175 	andeq	r0, r0, r5, ror r1
     f10:	00031906 	andeq	r1, r3, r6, lsl #18
     f14:	745c0400 	ldrbvc	r0, [ip], #-1024	; 0xfffffc00
     f18:	02000000 	andeq	r0, r0, #0
     f1c:	b6060023 	strlt	r0, [r6], -r3, lsr #32
     f20:	04000003 	streq	r0, [r0], #-3
     f24:	0003635d 	andeq	r6, r3, sp, asr r3
     f28:	04230200 	strteq	r0, [r3], #-512	; 0xfffffe00
     f2c:	0003af06 	andeq	sl, r3, r6, lsl #30
     f30:	695e0400 	ldmdbvs	lr, {sl}^
     f34:	02000003 	andeq	r0, r0, #3
     f38:	56060823 	strpl	r0, [r6], -r3, lsr #16
     f3c:	04000003 	streq	r0, [r0], #-3
     f40:	0000bc5f 	andeq	fp, r0, pc, asr ip
     f44:	0c230200 	sfmeq	f0, 4, [r3], #-0
     f48:	1a040700 	bne	102b50 <RT_IRQ_STACK_PGSZ+0x102350>
     f4c:	08000001 	stmdaeq	r0, {r0}
     f50:	00007401 	andeq	r7, r0, r1, lsl #8
     f54:	00019500 	andeq	r9, r1, r0, lsl #10
     f58:	012a0900 			; <UNDEFINED> instruction: 0x012a0900
     f5c:	95090000 	strls	r0, [r9, #-0]
     f60:	09000001 	stmdbeq	r0, {r0}
     f64:	00000074 	andeq	r0, r0, r4, ror r0
     f68:	5b040700 	blpl	102b70 <RT_IRQ_STACK_PGSZ+0x102370>
     f6c:	07000000 	streq	r0, [r0, -r0]
     f70:	00017b04 	andeq	r7, r1, r4, lsl #22
     f74:	74010800 	strvc	r0, [r1], #-2048	; 0xfffff800
     f78:	bb000000 	bllt	f80 <RT_IRQ_STACK_PGSZ+0x780>
     f7c:	09000001 	stmdbeq	r0, {r0}
     f80:	0000012a 	andeq	r0, r0, sl, lsr #2
     f84:	0001bb09 	andeq	fp, r1, r9, lsl #22
     f88:	00740900 	rsbseq	r0, r4, r0, lsl #18
     f8c:	07000000 	streq	r0, [r0, -r0]
     f90:	0001c104 	andeq	ip, r1, r4, lsl #2
     f94:	005b0a00 	subseq	r0, fp, r0, lsl #20
     f98:	04070000 	streq	r0, [r7], #-0
     f9c:	000001a1 	andeq	r0, r0, r1, lsr #3
     fa0:	00740108 	rsbseq	r0, r4, r8, lsl #2
     fa4:	01e60000 	mvneq	r0, r0
     fa8:	2a090000 	bcs	240fb0 <RT_IRQ_STACK_PGSZ+0x2407b0>
     fac:	09000001 	stmdbeq	r0, {r0}
     fb0:	00000074 	andeq	r0, r0, r4, ror r0
     fb4:	00007b09 	andeq	r7, r0, r9, lsl #22
     fb8:	04070000 	streq	r0, [r7], #-0
     fbc:	000001cc 	andeq	r0, r0, ip, asr #3
     fc0:	0001da0b 	andeq	sp, r1, fp, lsl #20
     fc4:	47040400 	strmi	r0, [r4, -r0, lsl #8]
     fc8:	0000020f 	andeq	r0, r0, pc, lsl #4
     fcc:	0004c30c 	andeq	ip, r4, ip, lsl #6
     fd0:	0f490400 	svceq	0x00490400
     fd4:	0c000002 	stceq	0, cr0, [r0], {2}
     fd8:	00000287 	andeq	r0, r0, r7, lsl #5
     fdc:	02eb4a04 	rsceq	r4, fp, #4, 20	; 0x4000
     fe0:	07000000 	streq	r0, [r0, -r0]
     fe4:	00021504 	andeq	r1, r2, r4, lsl #10
     fe8:	00c70a00 	sbceq	r0, r7, r0, lsl #20
     fec:	ef050000 	svc	0x00050000
     ff0:	38000002 	stmdacc	r0, {r1}
     ff4:	02eb8104 	rsceq	r8, fp, #4, 2
     ff8:	15060000 	strne	r0, [r6, #-0]
     ffc:	04000004 	streq	r0, [r0], #-4
    1000:	0003e583 	andeq	lr, r3, r3, lsl #11
    1004:	00230200 	eoreq	r0, r3, r0, lsl #4
    1008:	00015d06 	andeq	r5, r1, r6, lsl #26
    100c:	75860400 	strvc	r0, [r6, #1024]	; 0x400
    1010:	02000001 	andeq	r0, r0, #1
    1014:	9e060423 	cdpls	4, 0, cr0, cr6, cr3, {1}
    1018:	04000002 	streq	r0, [r0], #-2
    101c:	00019b87 	andeq	r9, r1, r7, lsl #23
    1020:	08230200 	stmdaeq	r3!, {r9}
    1024:	00019306 	andeq	r9, r1, r6, lsl #6
    1028:	c6880400 	strgt	r0, [r8], r0, lsl #8
    102c:	02000001 	andeq	r0, r0, #1
    1030:	87060c23 	strhi	r0, [r6, -r3, lsr #24]
    1034:	04000003 	streq	r0, [r0], #-3
    1038:	0004058a 	andeq	r0, r4, sl, lsl #11
    103c:	10230200 	eorne	r0, r3, r0, lsl #4
    1040:	00035c06 	andeq	r5, r3, r6, lsl #24
    1044:	e68b0400 	str	r0, [fp], r0, lsl #8
    1048:	02000001 	andeq	r0, r0, #1
    104c:	9b061423 	blls	1860e0 <RT_IRQ_STACK_PGSZ+0x1858e0>
    1050:	04000003 	streq	r0, [r0], #-3
    1054:	0001758d 	andeq	r7, r1, sp, lsl #11
    1058:	18230200 	stmdane	r3!, {r9}
    105c:	7075640d 	rsbsvc	r6, r5, sp, lsl #8
    1060:	2b8e0400 	blcs	fe382068 <__bss_end+0x9e37efc0>
    1064:	02000004 	andeq	r0, r0, #4
    1068:	8e061c23 	cdphi	12, 0, cr1, cr6, cr3, {1}
    106c:	04000002 	streq	r0, [r0], #-2
    1070:	00045190 	muleq	r4, r0, r1
    1074:	20230200 	eorcs	r0, r3, r0, lsl #4
    1078:	00046606 	andeq	r6, r4, r6, lsl #12
    107c:	6c920400 	cfldrsvs	mvf0, [r2], {0}
    1080:	02000004 	andeq	r0, r0, #4
    1084:	6d062423 	cfstrsvs	mvf2, [r6, #-140]	; 0xffffff74
    1088:	04000001 	streq	r0, [r0], #-1
    108c:	00046c94 	muleq	r4, r4, ip
    1090:	28230200 	stmdacs	r3!, {r9}
    1094:	0001f606 	andeq	pc, r1, r6, lsl #12
    1098:	6c960400 	cfldrsvs	mvf0, [r6], {0}
    109c:	02000004 	andeq	r0, r0, #4
    10a0:	78062c23 	stmdavc	r6, {r0, r1, r5, sl, fp, sp}
    10a4:	04000003 	streq	r0, [r0], #-3
    10a8:	00049998 	muleq	r4, r8, r9
    10ac:	30230200 	eorcc	r0, r3, r0, lsl #4
    10b0:	00037606 	andeq	r7, r3, r6, lsl #12
    10b4:	bf9a0400 	svclt	0x009a0400
    10b8:	02000004 	andeq	r0, r0, #4
    10bc:	07003423 	streq	r3, [r0, -r3, lsr #8]
    10c0:	0002f104 	andeq	pc, r2, r4, lsl #2
    10c4:	021a0a00 	andseq	r0, sl, #0, 20
    10c8:	b8050000 	stmdalt	r5, {}	; <UNPREDICTABLE>
    10cc:	30000003 	andcc	r0, r0, r3
    10d0:	03634e04 	cmneq	r3, #4, 28	; 0x40
    10d4:	20060000 	andcs	r0, r6, r0
    10d8:	04000002 	streq	r0, [r0], #-2
    10dc:	0003634f 	andeq	r6, r3, pc, asr #6
    10e0:	00230200 	eoreq	r0, r3, r0, lsl #4
    10e4:	00016306 	andeq	r6, r1, r6, lsl #6
    10e8:	63500400 	cmpvs	r0, #0, 8
    10ec:	02000003 	andeq	r0, r0, #3
    10f0:	b4060423 	strlt	r0, [r6], #-1059	; 0xfffffbdd
    10f4:	04000002 	streq	r0, [r0], #-2
    10f8:	00036951 	andeq	r6, r3, r1, asr r9
    10fc:	08230200 	stmdaeq	r3!, {r9}
    1100:	00034a06 	andeq	r4, r3, r6, lsl #20
    1104:	82520400 	subshi	r0, r2, #0, 8
    1108:	02000000 	andeq	r0, r0, #0
    110c:	96060c23 	strls	r0, [r6], -r3, lsr #24
    1110:	04000002 	streq	r0, [r0], #-2
    1114:	00007453 	andeq	r7, r0, r3, asr r4
    1118:	14230200 	strtne	r0, [r3], #-512	; 0xfffffe00
    111c:	0400750d 	streq	r7, [r0], #-1293	; 0xfffffaf3
    1120:	0001ec54 	andeq	lr, r1, r4, asr ip
    1124:	18230200 	stmdane	r3!, {r9}
    1128:	00021906 	andeq	r1, r2, r6, lsl #18
    112c:	6b550400 	blvs	1542134 <RT_IRQ_STACK_PGSZ+0x1541934>
    1130:	02000003 	andeq	r0, r0, #3
    1134:	07001c23 	streq	r1, [r0, -r3, lsr #24]
    1138:	0002f604 	andeq	pc, r2, r4, lsl #12
    113c:	0f040e00 	svceq	0x00040e00
    1140:	0000005b 	andeq	r0, r0, fp, asr r0
    1144:	0000037b 	andeq	r0, r0, fp, ror r3
    1148:	00037b10 	andeq	r7, r3, r0, lsl fp
    114c:	03001300 	movweq	r1, #768	; 0x300
    1150:	01020704 	tsteq	r2, r4, lsl #14
    1154:	05050000 	streq	r0, [r5, #-0]
    1158:	80000003 	andhi	r0, r0, r3
    115c:	039d6304 	orrseq	r6, sp, #4, 6	; 0x10000000
    1160:	ad060000 	stcge	0, cr0, [r6, #-0]
    1164:	04000001 	streq	r0, [r0], #-1
    1168:	00039d65 	andeq	r9, r3, r5, ror #26
    116c:	00230200 	eoreq	r0, r3, r0, lsl #4
    1170:	01300f00 	teqeq	r0, r0, lsl #30
    1174:	03ad0000 			; <UNDEFINED> instruction: 0x03ad0000
    1178:	7b100000 	blvc	401180 <RT_IRQ_STACK_PGSZ+0x400980>
    117c:	07000003 	streq	r0, [r0, -r3]
    1180:	023f0500 	eorseq	r0, pc, #0, 10
    1184:	04040000 	streq	r0, [r4], #-0
    1188:	0003c669 	andeq	ip, r3, r9, ror #12
    118c:	00610d00 	rsbeq	r0, r1, r0, lsl #26
    1190:	00746a04 	rsbseq	r6, r4, r4, lsl #20
    1194:	23020000 	movwcs	r0, #8192	; 0x2000
    1198:	01080000 	mrseq	r0, (UNDEF: 8)
    119c:	00000074 	andeq	r0, r0, r4, ror r0
    11a0:	000003e5 	andeq	r0, r0, r5, ror #7
    11a4:	00012a09 	andeq	r2, r1, r9, lsl #20
    11a8:	01bb0900 			; <UNDEFINED> instruction: 0x01bb0900
    11ac:	74090000 	strvc	r0, [r9], #-0
    11b0:	09000000 	stmdbeq	r0, {}	; <UNPREDICTABLE>
    11b4:	000000b1 	strheq	r0, [r0], -r1
    11b8:	c6040700 	strgt	r0, [r4], -r0, lsl #14
    11bc:	08000003 	stmdaeq	r0, {r0, r1}
    11c0:	00007401 	andeq	r7, r0, r1, lsl #8
    11c4:	00040500 	andeq	r0, r4, r0, lsl #10
    11c8:	012a0900 			; <UNDEFINED> instruction: 0x012a0900
    11cc:	74090000 	strvc	r0, [r9], #-0
    11d0:	09000000 	stmdbeq	r0, {}	; <UNPREDICTABLE>
    11d4:	00000074 	andeq	r0, r0, r4, ror r0
    11d8:	eb040700 	bl	102de0 <RT_IRQ_STACK_PGSZ+0x1025e0>
    11dc:	08000003 	stmdaeq	r0, {r0, r1}
    11e0:	00007401 	andeq	r7, r0, r1, lsl #8
    11e4:	00042000 	andeq	r2, r4, r0
    11e8:	04200900 	strteq	r0, [r0], #-2304	; 0xfffff700
    11ec:	2a090000 	bcs	2411f4 <RT_IRQ_STACK_PGSZ+0x2409f4>
    11f0:	00000001 	andeq	r0, r0, r1
    11f4:	04260407 	strteq	r0, [r6], #-1031	; 0xfffffbf9
    11f8:	300a0000 	andcc	r0, sl, r0
    11fc:	07000001 	streq	r0, [r0, -r1]
    1200:	00040b04 	andeq	r0, r4, r4, lsl #22
    1204:	74010800 	strvc	r0, [r1], #-2048	; 0xfffff800
    1208:	4b000000 	blmi	1210 <RT_IRQ_STACK_PGSZ+0xa10>
    120c:	09000004 	stmdbeq	r0, {r2}
    1210:	00000363 	andeq	r0, r0, r3, ror #6
    1214:	0001bb09 	andeq	fp, r1, r9, lsl #22
    1218:	044b0900 	strbeq	r0, [fp], #-2304	; 0xfffff700
    121c:	07000000 	streq	r0, [r0, -r0]
    1220:	0003ad04 	andeq	sl, r3, r4, lsl #26
    1224:	31040700 	tstcc	r4, r0, lsl #14
    1228:	08000004 	stmdaeq	r0, {r2}
    122c:	00007401 	andeq	r7, r0, r1, lsl #8
    1230:	00046c00 	andeq	r6, r4, r0, lsl #24
    1234:	03630900 	cmneq	r3, #0, 18
    1238:	4b090000 	blmi	241240 <RT_IRQ_STACK_PGSZ+0x240a40>
    123c:	00000004 	andeq	r0, r0, r4
    1240:	04570407 	ldrbeq	r0, [r7], #-1031	; 0xfffffbf9
    1244:	01080000 	mrseq	r0, (UNDEF: 8)
    1248:	00000074 	andeq	r0, r0, r4, ror r0
    124c:	0000048c 	andeq	r0, r0, ip, lsl #9
    1250:	00036309 	andeq	r6, r3, r9, lsl #6
    1254:	048c0900 	streq	r0, [ip], #2304	; 0x900
    1258:	93090000 	movwls	r0, #36864	; 0x9000
    125c:	00000004 	andeq	r0, r0, r4
    1260:	04920407 	ldreq	r0, [r2], #1031	; 0x407
    1264:	07110000 	ldreq	r0, [r1, -r0]
    1268:	00036904 	andeq	r6, r3, r4, lsl #18
    126c:	72040700 	andvc	r0, r4, #0, 14
    1270:	08000004 	stmdaeq	r0, {r2}
    1274:	00007401 	andeq	r7, r0, r1, lsl #8
    1278:	0004b900 	andeq	fp, r4, r0, lsl #18
    127c:	03690900 	cmneq	r9, #0, 18
    1280:	b9090000 	stmdblt	r9, {}	; <UNPREDICTABLE>
    1284:	09000004 	stmdbeq	r0, {r2}
    1288:	00000049 	andeq	r0, r0, r9, asr #32
    128c:	63040700 	movwvs	r0, #18176	; 0x4700
    1290:	07000003 	streq	r0, [r0, -r3]
    1294:	00049f04 	andeq	r9, r4, r4, lsl #30
    1298:	02c90500 	sbceq	r0, r9, #0, 10
    129c:	05980000 	ldreq	r0, [r8]
    12a0:	00053927 	andeq	r3, r5, r7, lsr #18
    12a4:	01990600 	orrseq	r0, r9, r0, lsl #12
    12a8:	2a050000 	bcs	1412b0 <RT_IRQ_STACK_PGSZ+0x140ab0>
    12ac:	00000539 	andeq	r0, r0, r9, lsr r5
    12b0:	06002302 	streq	r2, [r0], -r2, lsl #6
    12b4:	00000302 	andeq	r0, r0, r2, lsl #6
    12b8:	03822d05 	orreq	r2, r2, #320	; 0x140
    12bc:	23020000 	movwcs	r0, #8192	; 0x2000
    12c0:	034a0604 	movteq	r0, #42500	; 0xa604
    12c4:	30050000 	andcc	r0, r5, r0
    12c8:	00000082 	andeq	r0, r0, r2, lsl #1
    12cc:	01842303 	orreq	r2, r4, r3, lsl #6
    12d0:	0004a906 	andeq	sl, r4, r6, lsl #18
    12d4:	50330500 	eorspl	r0, r3, r0, lsl #10
    12d8:	03000000 	movweq	r0, #0
    12dc:	06018c23 	streq	r8, [r1], -r3, lsr #24
    12e0:	0000053b 	andeq	r0, r0, fp, lsr r5
    12e4:	003e3605 	eorseq	r3, lr, r5, lsl #12
    12e8:	23030000 	movwcs	r0, #12288	; 0x3000
    12ec:	c0060190 	mulgt	r6, r0, r1
    12f0:	05000001 	streq	r0, [r0, #-1]
    12f4:	00002539 	andeq	r2, r0, r9, lsr r5
    12f8:	94230300 	strtls	r0, [r3], #-768	; 0xfffffd00
    12fc:	01bb0601 			; <UNDEFINED> instruction: 0x01bb0601
    1300:	3c050000 	stccc	0, cr0, [r5], {-0}
    1304:	00000025 	andeq	r0, r0, r5, lsr #32
    1308:	01952303 	orrseq	r2, r5, r3, lsl #6
    130c:	3e040700 	cdpcc	7, 0, cr0, cr4, cr0, {0}
    1310:	12000000 	andne	r0, r0, #0
    1314:	00053601 	andeq	r3, r5, r1, lsl #12
    1318:	01050100 	mrseq	r0, (UNDEF: 21)
    131c:	60000c50 	andvs	r0, r0, r0, asr ip
    1320:	60000cd0 	ldrdvs	r0, [r0], -r0	; <UNPREDICTABLE>
    1324:	00000570 	andeq	r0, r0, r0, ror r5
    1328:	00057601 	andeq	r7, r5, r1, lsl #12
    132c:	033b1300 	teqeq	fp, #0, 6
    1330:	05010000 	streq	r0, [r1, #-0]
    1334:	00000069 	andeq	r0, r0, r9, rrx
    1338:	146c9102 	strbtne	r9, [ip], #-258	; 0xfffffefe
    133c:	000003db 	ldrdeq	r0, [r0], -fp
    1340:	00740701 	rsbseq	r0, r4, r1, lsl #14
    1344:	91020000 	mrsls	r0, (UNDEF: 2)
    1348:	a3150074 	tstge	r5, #116	; 0x74
    134c:	05000002 	streq	r0, [r0, #-2]
    1350:	0005834a 	andeq	r8, r5, sl, asr #6
    1354:	07010100 	streq	r0, [r1, -r0, lsl #2]
    1358:	0004c504 	andeq	ip, r4, r4, lsl #10
    135c:	03e11500 	mvneq	r1, #0, 10
    1360:	56050000 	strpl	r0, [r5], -r0
    1364:	00000025 	andeq	r0, r0, r5, lsr #32
    1368:	62150101 	andsvs	r0, r5, #1073741824	; 0x40000000
    136c:	05000003 	streq	r0, [r0, #-3]
    1370:	0005a35c 	andeq	sl, r5, ip, asr r3
    1374:	16010100 	strne	r0, [r1], -r0, lsl #2
    1378:	00000074 	andeq	r0, r0, r4, ror r0
    137c:	00084800 	andeq	r4, r8, r0, lsl #16
    1380:	90000200 	andls	r0, r0, r0, lsl #4
    1384:	04000004 	streq	r0, [r0], #-4
    1388:	00007701 	andeq	r7, r0, r1, lsl #14
    138c:	05850c00 	streq	r0, [r5, #3072]	; 0xc00
    1390:	00050000 	andeq	r0, r5, r0
    1394:	0cd00000 	ldcleq	0, cr0, [r0], {0}
    1398:	11506000 	cmpne	r0, r0
    139c:	049c6000 	ldreq	r6, [ip], #0
    13a0:	37020000 	strcc	r0, [r2, -r0]
    13a4:	03000002 	movweq	r0, #2
    13a8:	0000300b 	andeq	r3, r0, fp
    13ac:	08010300 	stmdaeq	r1, {r8, r9}
    13b0:	00000044 	andeq	r0, r0, r4, asr #32
    13b4:	64070203 	strvs	r0, [r7], #-515	; 0xfffffdfd
    13b8:	02000000 	andeq	r0, r0, #0
    13bc:	00000115 	andeq	r0, r0, r5, lsl r1
    13c0:	00490d03 	subeq	r0, r9, r3, lsl #26
    13c4:	04030000 	streq	r0, [r3], #-0
    13c8:	00005707 	andeq	r5, r0, r7, lsl #14
    13cc:	02380200 	eorseq	r0, r8, #0, 4
    13d0:	0f030000 	svceq	0x00030000
    13d4:	0000005b 	andeq	r0, r0, fp, asr r0
    13d8:	4d080103 	stfmis	f0, [r8, #-12]
    13dc:	02000000 	andeq	r0, r0, #0
    13e0:	000000fa 	strdeq	r0, [r0], -sl
    13e4:	006d1003 	rsbeq	r1, sp, r3
    13e8:	02030000 	andeq	r0, r3, #0
    13ec:	00010b05 	andeq	r0, r1, r5, lsl #22
    13f0:	05040400 	streq	r0, [r4, #-1024]	; 0xfffffc00
    13f4:	00746e69 	rsbseq	r6, r4, r9, ror #28
    13f8:	52070403 	andpl	r0, r7, #50331648	; 0x3000000
    13fc:	05000000 	streq	r0, [r0, #-0]
    1400:	000001a3 	andeq	r0, r0, r3, lsr #3
    1404:	ab140108 	blge	50182c <RT_IRQ_STACK_PGSZ+0x50102c>
    1408:	06000000 	streq	r0, [r0], -r0
    140c:	000004ae 	andeq	r0, r0, lr, lsr #9
    1410:	00ab1501 	adceq	r1, fp, r1, lsl #10
    1414:	23020000 	movwcs	r0, #8192	; 0x2000
    1418:	04530600 	ldrbeq	r0, [r3], #-1536	; 0xfffffa00
    141c:	15010000 	strne	r0, [r1, #-0]
    1420:	000000ab 	andeq	r0, r0, fp, lsr #1
    1424:	00042302 	andeq	r2, r4, r2, lsl #6
    1428:	00820407 	addeq	r0, r2, r7, lsl #8
    142c:	4f020000 	svcmi	0x00020000
    1430:	04000003 	streq	r0, [r0], #-3
    1434:	00003029 	andeq	r3, r0, r9, lsr #32
    1438:	02e90200 	rsceq	r0, r9, #0, 4
    143c:	2a040000 	bcs	101444 <RT_IRQ_STACK_PGSZ+0x100c44>
    1440:	00000049 	andeq	r0, r0, r9, asr #32
    1444:	00046f05 	andeq	r6, r4, r5, lsl #30
    1448:	35041400 	strcc	r1, [r4, #-1024]	; 0xfffffc00
    144c:	0000011a 	andeq	r0, r0, sl, lsl r1
    1450:	00041506 	andeq	r1, r4, r6, lsl #10
    1454:	75370400 	ldrvc	r0, [r7, #-1024]!	; 0xfffffc00
    1458:	02000001 	andeq	r0, r0, #1
    145c:	5d060023 	stcpl	0, cr0, [r6, #-140]	; 0xffffff74
    1460:	04000001 	streq	r0, [r0], #-1
    1464:	00017538 	andeq	r7, r1, r8, lsr r5
    1468:	04230200 	strteq	r0, [r3], #-512	; 0xfffffe00
    146c:	00029e06 	andeq	r9, r2, r6, lsl #28
    1470:	9b390400 	blls	e42478 <RT_IRQ_STACK_PGSZ+0xe41c78>
    1474:	02000001 	andeq	r0, r0, #1
    1478:	93060823 	movwls	r0, #26659	; 0x6823
    147c:	04000001 	streq	r0, [r0], #-1
    1480:	0001c63a 	andeq	ip, r1, sl, lsr r6
    1484:	0c230200 	sfmeq	f0, 4, [r3], #-0
    1488:	00035c06 	andeq	r5, r3, r6, lsl #24
    148c:	e63b0400 	ldrt	r0, [fp], -r0, lsl #8
    1490:	02000001 	andeq	r0, r0, #1
    1494:	08001023 	stmdaeq	r0, {r0, r1, r5, ip}
    1498:	00007401 	andeq	r7, r0, r1, lsl #8
    149c:	00012a00 	andeq	r2, r1, r0, lsl #20
    14a0:	012a0900 			; <UNDEFINED> instruction: 0x012a0900
    14a4:	07000000 	streq	r0, [r0, -r0]
    14a8:	00013004 	andeq	r3, r1, r4
    14ac:	02000500 	andeq	r0, r0, #0, 10
    14b0:	04100000 	ldreq	r0, [r0], #-0
    14b4:	0001755a 	andeq	r7, r1, sl, asr r5
    14b8:	03190600 	tsteq	r9, #0, 12
    14bc:	5c040000 	stcpl	0, cr0, [r4], {-0}
    14c0:	00000074 	andeq	r0, r0, r4, ror r0
    14c4:	06002302 	streq	r2, [r0], -r2, lsl #6
    14c8:	000003b6 			; <UNDEFINED> instruction: 0x000003b6
    14cc:	03635d04 	cmneq	r3, #4, 26	; 0x100
    14d0:	23020000 	movwcs	r0, #8192	; 0x2000
    14d4:	03af0604 			; <UNDEFINED> instruction: 0x03af0604
    14d8:	5e040000 	cdppl	0, 0, cr0, cr4, cr0, {0}
    14dc:	00000369 	andeq	r0, r0, r9, ror #6
    14e0:	06082302 	streq	r2, [r8], -r2, lsl #6
    14e4:	00000356 	andeq	r0, r0, r6, asr r3
    14e8:	00bc5f04 	adcseq	r5, ip, r4, lsl #30
    14ec:	23020000 	movwcs	r0, #8192	; 0x2000
    14f0:	0407000c 	streq	r0, [r7], #-12
    14f4:	0000011a 	andeq	r0, r0, sl, lsl r1
    14f8:	00740108 	rsbseq	r0, r4, r8, lsl #2
    14fc:	01950000 	orrseq	r0, r5, r0
    1500:	2a090000 	bcs	241508 <RT_IRQ_STACK_PGSZ+0x240d08>
    1504:	09000001 	stmdbeq	r0, {r0}
    1508:	00000195 	muleq	r0, r5, r1
    150c:	00007409 	andeq	r7, r0, r9, lsl #8
    1510:	04070000 	streq	r0, [r7], #-0
    1514:	0000005b 	andeq	r0, r0, fp, asr r0
    1518:	017b0407 	cmneq	fp, r7, lsl #8
    151c:	01080000 	mrseq	r0, (UNDEF: 8)
    1520:	00000074 	andeq	r0, r0, r4, ror r0
    1524:	000001bb 			; <UNDEFINED> instruction: 0x000001bb
    1528:	00012a09 	andeq	r2, r1, r9, lsl #20
    152c:	01bb0900 			; <UNDEFINED> instruction: 0x01bb0900
    1530:	74090000 	strvc	r0, [r9], #-0
    1534:	00000000 	andeq	r0, r0, r0
    1538:	01c10407 	biceq	r0, r1, r7, lsl #8
    153c:	5b0a0000 	blpl	281544 <RT_IRQ_STACK_PGSZ+0x280d44>
    1540:	07000000 	streq	r0, [r0, -r0]
    1544:	0001a104 	andeq	sl, r1, r4, lsl #2
    1548:	74010800 	strvc	r0, [r1], #-2048	; 0xfffff800
    154c:	e6000000 	str	r0, [r0], -r0
    1550:	09000001 	stmdbeq	r0, {r0}
    1554:	0000012a 	andeq	r0, r0, sl, lsr #2
    1558:	00007409 	andeq	r7, r0, r9, lsl #8
    155c:	007b0900 	rsbseq	r0, fp, r0, lsl #18
    1560:	07000000 	streq	r0, [r0, -r0]
    1564:	0001cc04 	andeq	ip, r1, r4, lsl #24
    1568:	01da0b00 	bicseq	r0, sl, r0, lsl #22
    156c:	04040000 	streq	r0, [r4], #-0
    1570:	00020f47 	andeq	r0, r2, r7, asr #30
    1574:	04c30c00 	strbeq	r0, [r3], #3072	; 0xc00
    1578:	49040000 	stmdbmi	r4, {}	; <UNPREDICTABLE>
    157c:	0000020f 	andeq	r0, r0, pc, lsl #4
    1580:	0002870c 	andeq	r8, r2, ip, lsl #14
    1584:	eb4a0400 	bl	128258c <RT_IRQ_STACK_PGSZ+0x1281d8c>
    1588:	00000002 	andeq	r0, r0, r2
    158c:	02150407 	andseq	r0, r5, #117440512	; 0x7000000
    1590:	c70a0000 	strgt	r0, [sl, -r0]
    1594:	05000000 	streq	r0, [r0, #-0]
    1598:	000002ef 	andeq	r0, r0, pc, ror #5
    159c:	eb810438 	bl	fe042684 <__bss_end+0x9e03f5dc>
    15a0:	06000002 	streq	r0, [r0], -r2
    15a4:	00000415 	andeq	r0, r0, r5, lsl r4
    15a8:	03e58304 	mvneq	r8, #4, 6	; 0x10000000
    15ac:	23020000 	movwcs	r0, #8192	; 0x2000
    15b0:	015d0600 	cmpeq	sp, r0, lsl #12
    15b4:	86040000 	strhi	r0, [r4], -r0
    15b8:	00000175 	andeq	r0, r0, r5, ror r1
    15bc:	06042302 	streq	r2, [r4], -r2, lsl #6
    15c0:	0000029e 	muleq	r0, lr, r2
    15c4:	019b8704 	orrseq	r8, fp, r4, lsl #14
    15c8:	23020000 	movwcs	r0, #8192	; 0x2000
    15cc:	01930608 	orrseq	r0, r3, r8, lsl #12
    15d0:	88040000 	stmdahi	r4, {}	; <UNPREDICTABLE>
    15d4:	000001c6 	andeq	r0, r0, r6, asr #3
    15d8:	060c2302 	streq	r2, [ip], -r2, lsl #6
    15dc:	00000387 	andeq	r0, r0, r7, lsl #7
    15e0:	04058a04 	streq	r8, [r5], #-2564	; 0xfffff5fc
    15e4:	23020000 	movwcs	r0, #8192	; 0x2000
    15e8:	035c0610 	cmpeq	ip, #16, 12	; 0x1000000
    15ec:	8b040000 	blhi	1015f4 <RT_IRQ_STACK_PGSZ+0x100df4>
    15f0:	000001e6 	andeq	r0, r0, r6, ror #3
    15f4:	06142302 	ldreq	r2, [r4], -r2, lsl #6
    15f8:	0000039b 	muleq	r0, fp, r3
    15fc:	01758d04 	cmneq	r5, r4, lsl #26
    1600:	23020000 	movwcs	r0, #8192	; 0x2000
    1604:	75640d18 	strbvc	r0, [r4, #-3352]!	; 0xfffff2e8
    1608:	8e040070 	mcrhi	0, 0, r0, cr4, cr0, {3}
    160c:	0000042b 	andeq	r0, r0, fp, lsr #8
    1610:	061c2302 	ldreq	r2, [ip], -r2, lsl #6
    1614:	0000028e 	andeq	r0, r0, lr, lsl #5
    1618:	04519004 	ldrbeq	r9, [r1], #-4
    161c:	23020000 	movwcs	r0, #8192	; 0x2000
    1620:	04660620 	strbteq	r0, [r6], #-1568	; 0xfffff9e0
    1624:	92040000 	andls	r0, r4, #0
    1628:	0000046c 	andeq	r0, r0, ip, ror #8
    162c:	06242302 	strteq	r2, [r4], -r2, lsl #6
    1630:	0000016d 	andeq	r0, r0, sp, ror #2
    1634:	046c9404 	strbteq	r9, [ip], #-1028	; 0xfffffbfc
    1638:	23020000 	movwcs	r0, #8192	; 0x2000
    163c:	01f60628 	mvnseq	r0, r8, lsr #12
    1640:	96040000 	strls	r0, [r4], -r0
    1644:	0000046c 	andeq	r0, r0, ip, ror #8
    1648:	062c2302 	strteq	r2, [ip], -r2, lsl #6
    164c:	00000378 	andeq	r0, r0, r8, ror r3
    1650:	04999804 	ldreq	r9, [r9], #2052	; 0x804
    1654:	23020000 	movwcs	r0, #8192	; 0x2000
    1658:	03760630 	cmneq	r6, #48, 12	; 0x3000000
    165c:	9a040000 	bls	101664 <RT_IRQ_STACK_PGSZ+0x100e64>
    1660:	000004bf 			; <UNDEFINED> instruction: 0x000004bf
    1664:	00342302 	eorseq	r2, r4, r2, lsl #6
    1668:	02f10407 	rscseq	r0, r1, #117440512	; 0x7000000
    166c:	1a0a0000 	bne	281674 <RT_IRQ_STACK_PGSZ+0x280e74>
    1670:	05000002 	streq	r0, [r0, #-2]
    1674:	000003b8 			; <UNDEFINED> instruction: 0x000003b8
    1678:	634e0430 	movtvs	r0, #58416	; 0xe430
    167c:	06000003 	streq	r0, [r0], -r3
    1680:	00000220 	andeq	r0, r0, r0, lsr #4
    1684:	03634f04 	cmneq	r3, #4, 30
    1688:	23020000 	movwcs	r0, #8192	; 0x2000
    168c:	01630600 	cmneq	r3, r0, lsl #12
    1690:	50040000 	andpl	r0, r4, r0
    1694:	00000363 	andeq	r0, r0, r3, ror #6
    1698:	06042302 	streq	r2, [r4], -r2, lsl #6
    169c:	000002b4 			; <UNDEFINED> instruction: 0x000002b4
    16a0:	03695104 	cmneq	r9, #4, 2
    16a4:	23020000 	movwcs	r0, #8192	; 0x2000
    16a8:	034a0608 	movteq	r0, #42504	; 0xa608
    16ac:	52040000 	andpl	r0, r4, #0
    16b0:	00000082 	andeq	r0, r0, r2, lsl #1
    16b4:	060c2302 	streq	r2, [ip], -r2, lsl #6
    16b8:	00000296 	muleq	r0, r6, r2
    16bc:	00745304 	rsbseq	r5, r4, r4, lsl #6
    16c0:	23020000 	movwcs	r0, #8192	; 0x2000
    16c4:	00750d14 	rsbseq	r0, r5, r4, lsl sp
    16c8:	01ec5404 	mvneq	r5, r4, lsl #8
    16cc:	23020000 	movwcs	r0, #8192	; 0x2000
    16d0:	02190618 	andseq	r0, r9, #24, 12	; 0x1800000
    16d4:	55040000 	strpl	r0, [r4, #-0]
    16d8:	0000036b 	andeq	r0, r0, fp, ror #6
    16dc:	001c2302 	andseq	r2, ip, r2, lsl #6
    16e0:	02f60407 	rscseq	r0, r6, #117440512	; 0x7000000
    16e4:	040e0000 	streq	r0, [lr], #-0
    16e8:	00005b0f 	andeq	r5, r0, pc, lsl #22
    16ec:	00037b00 	andeq	r7, r3, r0, lsl #22
    16f0:	037b1000 	cmneq	fp, #0
    16f4:	00130000 	andseq	r0, r3, r0
    16f8:	02070403 	andeq	r0, r7, #50331648	; 0x3000000
    16fc:	05000001 	streq	r0, [r0, #-1]
    1700:	00000305 	andeq	r0, r0, r5, lsl #6
    1704:	9d630480 	cfstrdls	mvd0, [r3, #-512]!	; 0xfffffe00
    1708:	06000003 	streq	r0, [r0], -r3
    170c:	000001ad 	andeq	r0, r0, sp, lsr #3
    1710:	039d6504 	orrseq	r6, sp, #4, 10	; 0x1000000
    1714:	23020000 	movwcs	r0, #8192	; 0x2000
    1718:	300f0000 	andcc	r0, pc, r0
    171c:	ad000001 	stcge	0, cr0, [r0, #-4]
    1720:	10000003 	andne	r0, r0, r3
    1724:	0000037b 	andeq	r0, r0, fp, ror r3
    1728:	3f050007 	svccc	0x00050007
    172c:	04000002 	streq	r0, [r0], #-2
    1730:	03c66904 	biceq	r6, r6, #4, 18	; 0x10000
    1734:	610d0000 	mrsvs	r0, (UNDEF: 13)
    1738:	746a0400 	strbtvc	r0, [sl], #-1024	; 0xfffffc00
    173c:	02000000 	andeq	r0, r0, #0
    1740:	08000023 	stmdaeq	r0, {r0, r1, r5}
    1744:	00007401 	andeq	r7, r0, r1, lsl #8
    1748:	0003e500 	andeq	lr, r3, r0, lsl #10
    174c:	012a0900 			; <UNDEFINED> instruction: 0x012a0900
    1750:	bb090000 	bllt	241758 <RT_IRQ_STACK_PGSZ+0x240f58>
    1754:	09000001 	stmdbeq	r0, {r0}
    1758:	00000074 	andeq	r0, r0, r4, ror r0
    175c:	0000b109 	andeq	fp, r0, r9, lsl #2
    1760:	04070000 	streq	r0, [r7], #-0
    1764:	000003c6 	andeq	r0, r0, r6, asr #7
    1768:	00740108 	rsbseq	r0, r4, r8, lsl #2
    176c:	04050000 	streq	r0, [r5], #-0
    1770:	2a090000 	bcs	241778 <RT_IRQ_STACK_PGSZ+0x240f78>
    1774:	09000001 	stmdbeq	r0, {r0}
    1778:	00000074 	andeq	r0, r0, r4, ror r0
    177c:	00007409 	andeq	r7, r0, r9, lsl #8
    1780:	04070000 	streq	r0, [r7], #-0
    1784:	000003eb 	andeq	r0, r0, fp, ror #7
    1788:	00740108 	rsbseq	r0, r4, r8, lsl #2
    178c:	04200000 	strteq	r0, [r0], #-0
    1790:	20090000 	andcs	r0, r9, r0
    1794:	09000004 	stmdbeq	r0, {r2}
    1798:	0000012a 	andeq	r0, r0, sl, lsr #2
    179c:	26040700 	strcs	r0, [r4], -r0, lsl #14
    17a0:	0a000004 	beq	17b8 <RT_IRQ_STACK_PGSZ+0xfb8>
    17a4:	00000130 	andeq	r0, r0, r0, lsr r1
    17a8:	040b0407 	streq	r0, [fp], #-1031	; 0xfffffbf9
    17ac:	01080000 	mrseq	r0, (UNDEF: 8)
    17b0:	00000074 	andeq	r0, r0, r4, ror r0
    17b4:	0000044b 	andeq	r0, r0, fp, asr #8
    17b8:	00036309 	andeq	r6, r3, r9, lsl #6
    17bc:	01bb0900 			; <UNDEFINED> instruction: 0x01bb0900
    17c0:	4b090000 	blmi	2417c8 <RT_IRQ_STACK_PGSZ+0x240fc8>
    17c4:	00000004 	andeq	r0, r0, r4
    17c8:	03ad0407 			; <UNDEFINED> instruction: 0x03ad0407
    17cc:	04070000 	streq	r0, [r7], #-0
    17d0:	00000431 	andeq	r0, r0, r1, lsr r4
    17d4:	00740108 	rsbseq	r0, r4, r8, lsl #2
    17d8:	046c0000 	strbteq	r0, [ip], #-0
    17dc:	63090000 	movwvs	r0, #36864	; 0x9000
    17e0:	09000003 	stmdbeq	r0, {r0, r1}
    17e4:	0000044b 	andeq	r0, r0, fp, asr #8
    17e8:	57040700 	strpl	r0, [r4, -r0, lsl #14]
    17ec:	08000004 	stmdaeq	r0, {r2}
    17f0:	00007401 	andeq	r7, r0, r1, lsl #8
    17f4:	00048c00 	andeq	r8, r4, r0, lsl #24
    17f8:	03630900 	cmneq	r3, #0, 18
    17fc:	8c090000 	stchi	0, cr0, [r9], {-0}
    1800:	09000004 	stmdbeq	r0, {r2}
    1804:	00000493 	muleq	r0, r3, r4
    1808:	92040700 	andls	r0, r4, #0, 14
    180c:	11000004 	tstne	r0, r4
    1810:	03690407 	cmneq	r9, #117440512	; 0x7000000
    1814:	04070000 	streq	r0, [r7], #-0
    1818:	00000472 	andeq	r0, r0, r2, ror r4
    181c:	00740108 	rsbseq	r0, r4, r8, lsl #2
    1820:	04b90000 	ldrteq	r0, [r9], #0
    1824:	69090000 	stmdbvs	r9, {}	; <UNPREDICTABLE>
    1828:	09000003 	stmdbeq	r0, {r0, r1}
    182c:	000004b9 			; <UNDEFINED> instruction: 0x000004b9
    1830:	00004909 	andeq	r4, r0, r9, lsl #18
    1834:	04070000 	streq	r0, [r7], #-0
    1838:	00000363 	andeq	r0, r0, r3, ror #6
    183c:	049f0407 	ldreq	r0, [pc], #1031	; 1844 <RT_IRQ_STACK_PGSZ+0x1044>
    1840:	c9050000 	stmdbgt	r5, {}	; <UNPREDICTABLE>
    1844:	98000002 	stmdals	r0, {r1}
    1848:	05392705 	ldreq	r2, [r9, #-1797]!	; 0xfffff8fb
    184c:	99060000 	stmdbls	r6, {}	; <UNPREDICTABLE>
    1850:	05000001 	streq	r0, [r0, #-1]
    1854:	0005392a 	andeq	r3, r5, sl, lsr #18
    1858:	00230200 	eoreq	r0, r3, r0, lsl #4
    185c:	00030206 	andeq	r0, r3, r6, lsl #4
    1860:	822d0500 	eorhi	r0, sp, #0, 10
    1864:	02000003 	andeq	r0, r0, #3
    1868:	4a060423 	bmi	1828fc <RT_IRQ_STACK_PGSZ+0x1820fc>
    186c:	05000003 	streq	r0, [r0, #-3]
    1870:	00008230 	andeq	r8, r0, r0, lsr r2
    1874:	84230300 	strthi	r0, [r3], #-768	; 0xfffffd00
    1878:	04a90601 	strteq	r0, [r9], #1537	; 0x601
    187c:	33050000 	movwcc	r0, #20480	; 0x5000
    1880:	00000050 	andeq	r0, r0, r0, asr r0
    1884:	018c2303 	orreq	r2, ip, r3, lsl #6
    1888:	00053b06 	andeq	r3, r5, r6, lsl #22
    188c:	3e360500 	cfabs32cc	mvfx0, mvfx6
    1890:	03000000 	movweq	r0, #0
    1894:	06019023 	streq	r9, [r1], -r3, lsr #32
    1898:	000001c0 	andeq	r0, r0, r0, asr #3
    189c:	00253905 	eoreq	r3, r5, r5, lsl #18
    18a0:	23030000 	movwcs	r0, #12288	; 0x3000
    18a4:	bb060194 	bllt	181efc <RT_IRQ_STACK_PGSZ+0x1816fc>
    18a8:	05000001 	streq	r0, [r0, #-1]
    18ac:	0000253c 	andeq	r2, r0, ip, lsr r5
    18b0:	95230300 	strls	r0, [r3, #-768]!	; 0xfffffd00
    18b4:	04070001 	streq	r0, [r7], #-1
    18b8:	0000003e 	andeq	r0, r0, lr, lsr r0
    18bc:	00055405 	andeq	r5, r5, r5, lsl #8
    18c0:	3f050c00 	svccc	0x00050c00
    18c4:	00000568 	andeq	r0, r0, r8, ror #10
    18c8:	00056e06 	andeq	r6, r5, r6, lsl #28
    18cc:	68420500 	stmdavs	r2, {r8, sl}^
    18d0:	02000005 	andeq	r0, r0, #5
    18d4:	4a060023 	bmi	181968 <RT_IRQ_STACK_PGSZ+0x181168>
    18d8:	05000003 	streq	r0, [r0, #-3]
    18dc:	00008245 	andeq	r8, r0, r5, asr #4
    18e0:	04230200 	strteq	r0, [r3], #-512	; 0xfffffe00
    18e4:	00621200 	rsbeq	r1, r2, r0, lsl #4
    18e8:	5a020000 	bpl	818f0 <RT_IRQ_STACK_PGSZ+0x810f0>
    18ec:	05000005 	streq	r0, [r0, #-5]
    18f0:	00053f47 	andeq	r3, r5, r7, asr #30
    18f4:	02281300 	eoreq	r1, r8, #0, 6
    18f8:	1f010000 	svcne	0x00010000
    18fc:	000cd001 	andeq	sp, ip, r1
    1900:	000d0860 	andeq	r0, sp, r0, ror #16
    1904:	0005a860 	andeq	sl, r5, r0, ror #16
    1908:	05a00100 	streq	r0, [r0, #256]!	; 0x100
    190c:	4a140000 	bmi	501914 <RT_IRQ_STACK_PGSZ+0x501114>
    1910:	01000003 	tsteq	r0, r3
    1914:	0000ab1f 	andeq	sl, r0, pc, lsl fp
    1918:	74910200 	ldrvc	r0, [r1], #512	; 0x200
    191c:	02be1500 	adcseq	r1, lr, #0, 10
    1920:	31010000 	mrscc	r0, (UNDEF: 1)
    1924:	00007401 	andeq	r7, r0, r1, lsl #8
    1928:	000d0800 	andeq	r0, sp, r0, lsl #16
    192c:	000d4460 	andeq	r4, sp, r0, ror #8
    1930:	0005ec60 	andeq	lr, r5, r0, ror #24
    1934:	05cc0100 	strbeq	r0, [ip, #256]	; 0x100
    1938:	a8140000 	ldmdage	r4, {}	; <UNPREDICTABLE>
    193c:	01000001 	tsteq	r0, r1
    1940:	0005cc31 	andeq	ip, r5, r1, lsr ip
    1944:	74910200 	ldrvc	r0, [r1], #512	; 0x200
    1948:	d2040700 	andle	r0, r4, #0, 14
    194c:	0a000005 	beq	1968 <RT_IRQ_STACK_PGSZ+0x1168>
    1950:	00000082 	andeq	r0, r0, r2, lsl #1
    1954:	00025213 	andeq	r5, r2, r3, lsl r2
    1958:	01370100 	teqeq	r7, r0, lsl #2
    195c:	60000d44 	andvs	r0, r0, r4, asr #26
    1960:	60000d9c 	mulvs	r0, ip, sp
    1964:	00000630 	andeq	r0, r0, r0, lsr r6
    1968:	00061b01 	andeq	r1, r6, r1, lsl #22
    196c:	03fc1400 	mvnseq	r1, #0, 8
    1970:	37010000 	strcc	r0, [r1, -r0]
    1974:	000000ab 	andeq	r0, r0, fp, lsr #1
    1978:	14749102 	ldrbtne	r9, [r4], #-258	; 0xfffffefe
    197c:	00000453 	andeq	r0, r0, r3, asr r4
    1980:	00ab3801 	adceq	r3, fp, r1, lsl #16
    1984:	91020000 	mrsls	r0, (UNDEF: 2)
    1988:	04ae1470 	strteq	r1, [lr], #1136	; 0x470
    198c:	39010000 	stmdbcc	r1, {}	; <UNPREDICTABLE>
    1990:	000000ab 	andeq	r0, r0, fp, lsr #1
    1994:	006c9102 	rsbeq	r9, ip, r2, lsl #2
    1998:	00045816 	andeq	r5, r4, r6, lsl r8
    199c:	01420100 	mrseq	r0, (UNDEF: 82)
    19a0:	60000d9c 	mulvs	r0, ip, sp
    19a4:	60000dd4 	ldrdvs	r0, [r0], -r4
    19a8:	00000674 	andeq	r0, r0, r4, ror r6
    19ac:	00065101 	andeq	r5, r6, r1, lsl #2
    19b0:	03fc1400 	mvnseq	r1, #0, 8
    19b4:	42010000 	andmi	r0, r1, #0
    19b8:	000000ab 	andeq	r0, r0, fp, lsr #1
    19bc:	14749102 	ldrbtne	r9, [r4], #-258	; 0xfffffefe
    19c0:	000001a8 	andeq	r0, r0, r8, lsr #3
    19c4:	00ab4201 	adceq	r4, fp, r1, lsl #4
    19c8:	91020000 	mrsls	r0, (UNDEF: 2)
    19cc:	cf130070 	svcgt	0x00130070
    19d0:	01000002 	tsteq	r0, r2
    19d4:	0dd40148 	ldfeqe	f0, [r4, #288]	; 0x120
    19d8:	0e106000 	cdpeq	0, 1, cr6, cr0, cr0, {0}
    19dc:	06ac6000 	strteq	r6, [ip], r0
    19e0:	87010000 	strhi	r0, [r1, -r0]
    19e4:	14000006 	strne	r0, [r0], #-6
    19e8:	00000453 	andeq	r0, r0, r3, asr r4
    19ec:	00ab4801 	adceq	r4, fp, r1, lsl #16
    19f0:	91020000 	mrsls	r0, (UNDEF: 2)
    19f4:	04ae1474 	strteq	r1, [lr], #1140	; 0x474
    19f8:	48010000 	stmdami	r1, {}	; <UNPREDICTABLE>
    19fc:	000000ab 	andeq	r0, r0, fp, lsr #1
    1a00:	00709102 	rsbseq	r9, r0, r2, lsl #2
    1a04:	0002d116 	andeq	sp, r2, r6, lsl r1
    1a08:	01530100 	cmpeq	r3, r0, lsl #2
    1a0c:	60000e10 	andvs	r0, r0, r0, lsl lr
    1a10:	60000e68 	andvs	r0, r0, r8, ror #28
    1a14:	000006f0 	strdeq	r0, [r0], -r0	; <UNPREDICTABLE>
    1a18:	0006af01 	andeq	sl, r6, r1, lsl #30
    1a1c:	05c51400 	strbeq	r1, [r5, #1024]	; 0x400
    1a20:	53010000 	movwpl	r0, #4096	; 0x1000
    1a24:	000000ab 	andeq	r0, r0, fp, lsr #1
    1a28:	00749102 	rsbseq	r9, r4, r2, lsl #2
    1a2c:	0003be16 	andeq	fp, r3, r6, lsl lr
    1a30:	015b0100 	cmpeq	fp, r0, lsl #2
    1a34:	60000e68 	andvs	r0, r0, r8, ror #28
    1a38:	60000ea8 	andvs	r0, r0, r8, lsr #29
    1a3c:	00000728 	andeq	r0, r0, r8, lsr #14
    1a40:	0006d701 	andeq	sp, r6, r1, lsl #14
    1a44:	01a81400 			; <UNDEFINED> instruction: 0x01a81400
    1a48:	5b010000 	blpl	41a50 <RT_IRQ_STACK_PGSZ+0x41250>
    1a4c:	000000ab 	andeq	r0, r0, fp, lsr #1
    1a50:	00749102 	rsbseq	r9, r4, r2, lsl #2
    1a54:	0002da17 	andeq	sp, r2, r7, lsl sl
    1a58:	01630100 	cmneq	r3, r0, lsl #2
    1a5c:	000000ab 	andeq	r0, r0, fp, lsr #1
    1a60:	60000ea8 	andvs	r0, r0, r8, lsr #29
    1a64:	60000ee8 	andvs	r0, r0, r8, ror #29
    1a68:	00000760 	andeq	r0, r0, r0, ror #14
    1a6c:	00070301 	andeq	r0, r7, r1, lsl #6
    1a70:	01a81400 			; <UNDEFINED> instruction: 0x01a81400
    1a74:	63010000 	movwvs	r0, #4096	; 0x1000
    1a78:	000000ab 	andeq	r0, r0, fp, lsr #1
    1a7c:	00749102 	rsbseq	r9, r4, r2, lsl #2
    1a80:	05460118 	strbeq	r0, [r6, #-280]	; 0xfffffee8
    1a84:	05020000 	streq	r0, [r2, #-0]
    1a88:	00007401 	andeq	r7, r0, r1, lsl #8
    1a8c:	000ee800 	andeq	lr, lr, r0, lsl #16
    1a90:	000f4460 	andeq	r4, pc, r0, ror #8
    1a94:	00079860 	andeq	r9, r7, r0, ror #16
    1a98:	073e0100 	ldreq	r0, [lr, -r0, lsl #2]!
    1a9c:	73190000 	tstvc	r9, #0
    1aa0:	02006d65 	andeq	r6, r0, #6464	; 0x1940
    1aa4:	00073e05 	andeq	r3, r7, r5, lsl #28
    1aa8:	74910200 	ldrvc	r0, [r1], #512	; 0x200
    1aac:	00044314 	andeq	r4, r4, r4, lsl r3
    1ab0:	49050200 	stmdbmi	r5, {r9}
    1ab4:	02000000 	andeq	r0, r0, #0
    1ab8:	07007091 			; <UNDEFINED> instruction: 0x07007091
    1abc:	00056d04 	andeq	r6, r5, r4, lsl #26
    1ac0:	60011800 	andvs	r1, r1, r0, lsl #16
    1ac4:	02000005 	andeq	r0, r0, #5
    1ac8:	00740111 	rsbseq	r0, r4, r1, lsl r1
    1acc:	0f440000 	svceq	0x00440000
    1ad0:	10386000 	eorsne	r6, r8, r0
    1ad4:	07d06000 	ldrbeq	r6, [r0, r0]
    1ad8:	a5010000 	strge	r0, [r1, #-0]
    1adc:	19000007 	stmdbne	r0, {r0, r1, r2}
    1ae0:	006d6573 	rsbeq	r6, sp, r3, ror r5
    1ae4:	073e1102 	ldreq	r1, [lr, -r2, lsl #2]!
    1ae8:	91020000 	mrsls	r0, (UNDEF: 2)
    1aec:	0541146c 	strbeq	r1, [r1, #-1132]	; 0xfffffb94
    1af0:	11020000 	mrsne	r0, (UNDEF: 2)
    1af4:	0000003e 	andeq	r0, r0, lr, lsr r0
    1af8:	1a689102 	bne	1a25f08 <RT_IRQ_STACK_PGSZ+0x1a25708>
    1afc:	000003db 	ldrdeq	r0, [r0], -fp
    1b00:	00741302 	rsbseq	r1, r4, r2, lsl #6
    1b04:	91020000 	mrsls	r0, (UNDEF: 2)
    1b08:	0fa41b74 	svceq	0x00a41b74
    1b0c:	10146000 	andsne	r6, r4, r0
    1b10:	ac1a6000 	ldcge	0, cr6, [sl], {-0}
    1b14:	02000002 	andeq	r0, r0, #2
    1b18:	0000ab22 	andeq	sl, r0, r2, lsr #22
    1b1c:	70910200 	addsvc	r0, r1, r0, lsl #4
    1b20:	01180000 	tsteq	r8, r0
    1b24:	00000577 	andeq	r0, r0, r7, ror r5
    1b28:	74013502 	strvc	r3, [r1], #-1282	; 0xfffffafe
    1b2c:	38000000 	stmdacc	r0, {}	; <UNPREDICTABLE>
    1b30:	50600010 	rsbpl	r0, r0, r0, lsl r0
    1b34:	08600011 	stmdaeq	r0!, {r0, r4}^
    1b38:	01000008 	tsteq	r0, r8
    1b3c:	0000081e 	andeq	r0, r0, lr, lsl r8
    1b40:	6d657319 	stclvs	3, cr7, [r5, #-100]!	; 0xffffff9c
    1b44:	3e350200 	cdpcc	2, 3, cr0, cr5, cr0, {0}
    1b48:	02000007 	andeq	r0, r0, #7
    1b4c:	db1a6491 	blle	69ad98 <RT_IRQ_STACK_PGSZ+0x69a598>
    1b50:	02000003 	andeq	r0, r0, #3
    1b54:	00007437 	andeq	r7, r0, r7, lsr r4
    1b58:	68910200 	ldmvs	r1, {r9}
    1b5c:	0010681b 	andseq	r6, r0, fp, lsl r8
    1b60:	00110860 	andseq	r0, r1, r0, ror #16
    1b64:	03c71a60 	biceq	r1, r7, #96, 20	; 0x60000
    1b68:	3d020000 	stccc	0, cr0, [r2, #-0]
    1b6c:	000000ab 	andeq	r0, r0, fp, lsr #1
    1b70:	1a749102 	bne	1d25f80 <RT_IRQ_STACK_PGSZ+0x1d25780>
    1b74:	000001b6 			; <UNDEFINED> instruction: 0x000001b6
    1b78:	081e3e02 	ldmdaeq	lr, {r1, r9, sl, fp, ip, sp}
    1b7c:	91020000 	mrsls	r0, (UNDEF: 2)
    1b80:	10941b70 	addsne	r1, r4, r0, ror fp
    1b84:	11086000 	mrsne	r6, (UNDEF: 8)
    1b88:	ac1a6000 	ldcge	0, cr6, [sl], {-0}
    1b8c:	02000002 	andeq	r0, r0, #2
    1b90:	0000ab42 	andeq	sl, r0, r2, asr #22
    1b94:	6c910200 	lfmvs	f0, 4, [r1], {0}
    1b98:	07000000 	streq	r0, [r0, -r0]
    1b9c:	0004c504 	andeq	ip, r4, r4, lsl #10
    1ba0:	02a31c00 	adceq	r1, r3, #0, 24
    1ba4:	4a050000 	bmi	141bac <RT_IRQ_STACK_PGSZ+0x1413ac>
    1ba8:	0000081e 	andeq	r0, r0, lr, lsl r8
    1bac:	e11c0101 	tst	ip, r1, lsl #2
    1bb0:	05000003 	streq	r0, [r0, #-3]
    1bb4:	00002556 	andeq	r2, r0, r6, asr r5
    1bb8:	1c010100 	stfnes	f0, [r1], {-0}
    1bbc:	00000341 	andeq	r0, r0, r1, asr #6
    1bc0:	00825905 	addeq	r5, r2, r5, lsl #18
    1bc4:	01010000 	mrseq	r0, (UNDEF: 1)
    1bc8:	0001ef00 	andeq	lr, r1, r0, lsl #30
    1bcc:	1e000200 	cdpne	2, 0, cr0, cr0, cr0, {0}
    1bd0:	04000006 	streq	r0, [r0], #-6
    1bd4:	00007701 	andeq	r7, r0, r1, lsl #14
    1bd8:	05ec0c00 	strbeq	r0, [ip, #3072]!	; 0xc00
    1bdc:	00050000 	andeq	r0, r5, r0
    1be0:	11500000 	cmpne	r0, r0
    1be4:	12606000 	rsbne	r6, r0, #0
    1be8:	05a16000 	streq	r6, [r1, #0]!
    1bec:	01020000 	mrseq	r0, (UNDEF: 2)
    1bf0:	00004408 	andeq	r4, r0, r8, lsl #8
    1bf4:	07020200 	streq	r0, [r2, -r0, lsl #4]
    1bf8:	00000064 	andeq	r0, r0, r4, rrx
    1bfc:	00011503 	andeq	r1, r1, r3, lsl #10
    1c00:	3e0d0200 	cdpcc	2, 0, cr0, cr13, cr0, {0}
    1c04:	02000000 	andeq	r0, r0, #0
    1c08:	00570704 	subseq	r0, r7, r4, lsl #14
    1c0c:	01020000 	mrseq	r0, (UNDEF: 2)
    1c10:	00004d08 	andeq	r4, r0, r8, lsl #26
    1c14:	00fa0300 	rscseq	r0, sl, r0, lsl #6
    1c18:	10020000 	andne	r0, r2, r0
    1c1c:	00000057 	andeq	r0, r0, r7, asr r0
    1c20:	0b050202 	bleq	142430 <RT_IRQ_STACK_PGSZ+0x141c30>
    1c24:	04000001 	streq	r0, [r0], #-1
    1c28:	6e690504 	cdpvs	5, 6, cr0, cr9, cr4, {0}
    1c2c:	04020074 	streq	r0, [r2], #-116	; 0xffffff8c
    1c30:	00005207 	andeq	r5, r0, r7, lsl #4
    1c34:	01a30500 			; <UNDEFINED> instruction: 0x01a30500
    1c38:	03080000 	movweq	r0, #32768	; 0x8000
    1c3c:	00009514 	andeq	r9, r0, r4, lsl r5
    1c40:	04ae0600 	strteq	r0, [lr], #1536	; 0x600
    1c44:	15030000 	strne	r0, [r3, #-0]
    1c48:	00000095 	muleq	r0, r5, r0
    1c4c:	06002302 	streq	r2, [r0], -r2, lsl #6
    1c50:	00000453 	andeq	r0, r0, r3, asr r4
    1c54:	00951503 	addseq	r1, r5, r3, lsl #10
    1c58:	23020000 	movwcs	r0, #8192	; 0x2000
    1c5c:	04070004 	streq	r0, [r7], #-4
    1c60:	0000006c 	andeq	r0, r0, ip, rrx
    1c64:	00450407 	subeq	r0, r5, r7, lsl #8
    1c68:	04080000 	streq	r0, [r8], #-0
    1c6c:	02070402 	andeq	r0, r7, #33554432	; 0x2000000
    1c70:	05000001 	streq	r0, [r0, #-1]
    1c74:	00000554 	andeq	r0, r0, r4, asr r5
    1c78:	d33f040c 	teqle	pc, #12, 8	; 0xc000000
    1c7c:	06000000 	streq	r0, [r0], -r0
    1c80:	0000056e 	andeq	r0, r0, lr, ror #10
    1c84:	00d34204 	sbcseq	r4, r3, r4, lsl #4
    1c88:	23020000 	movwcs	r0, #8192	; 0x2000
    1c8c:	034a0600 	movteq	r0, #42496	; 0xa600
    1c90:	45040000 	strmi	r0, [r4, #-0]
    1c94:	0000006c 	andeq	r0, r0, ip, rrx
    1c98:	00042302 	andeq	r2, r4, r2, lsl #6
    1c9c:	00004c09 	andeq	r4, r0, r9, lsl #24
    1ca0:	055a0300 	ldrbeq	r0, [sl, #-768]	; 0xfffffd00
    1ca4:	47040000 	strmi	r0, [r4, -r0]
    1ca8:	000000aa 	andeq	r0, r0, sl, lsr #1
    1cac:	05bf010a 	ldreq	r0, [pc, #266]!	; 1dbe <RT_IRQ_STACK_PGSZ+0x15be>
    1cb0:	14010000 	strne	r0, [r1], #-0
    1cb4:	00115001 	andseq	r5, r1, r1
    1cb8:	00119c60 	andseq	r9, r1, r0, ror #24
    1cbc:	00084060 	andeq	r4, r8, r0, rrx
    1cc0:	010c0100 	mrseq	r0, (UNDEF: 28)
    1cc4:	610b0000 	mrsvs	r0, (UNDEF: 11)
    1cc8:	01006772 	tsteq	r0, r2, ror r7
    1ccc:	0000a114 	andeq	sl, r0, r4, lsl r1
    1cd0:	74910200 	ldrvc	r0, [r1], #512	; 0x200
    1cd4:	e0010a00 	and	r0, r1, r0, lsl #20
    1cd8:	01000005 	tsteq	r0, r5
    1cdc:	119c011f 	orrsne	r0, ip, pc, lsl r1
    1ce0:	11e86000 	mvnne	r6, r0
    1ce4:	086c6000 	stmdaeq	ip!, {sp, lr}^
    1ce8:	35010000 	strcc	r0, [r1, #-0]
    1cec:	0b000001 	bleq	1cf8 <RT_IRQ_STACK_PGSZ+0x14f8>
    1cf0:	00677261 	rsbeq	r7, r7, r1, ror #4
    1cf4:	00a11f01 	adceq	r1, r1, r1, lsl #30
    1cf8:	91020000 	mrsls	r0, (UNDEF: 2)
    1cfc:	010c0074 	tsteq	ip, r4, ror r0
    1d00:	000005ba 			; <UNDEFINED> instruction: 0x000005ba
    1d04:	5e012901 	cdppl	9, 0, cr2, cr1, cr1, {0}
    1d08:	e8000000 	stmda	r0, {}	; <UNPREDICTABLE>
    1d0c:	60600011 	rsbvs	r0, r0, r1, lsl r0
    1d10:	98600012 	stmdals	r0!, {r1, r4}^
    1d14:	01000008 	tsteq	r0, r8
    1d18:	00000170 	andeq	r0, r0, r0, ror r1
    1d1c:	0005cb0d 	andeq	ip, r5, sp, lsl #22
    1d20:	5e290100 	sufple	f0, f1, f0
    1d24:	02000000 	andeq	r0, r0, #0
    1d28:	d00d7491 	mulle	sp, r1, r4
    1d2c:	01000005 	tsteq	r0, r5
    1d30:	00017029 	andeq	r7, r1, r9, lsr #32
    1d34:	70910200 	addsvc	r0, r1, r0, lsl #4
    1d38:	9b040700 	blls	103940 <RT_IRQ_STACK_PGSZ+0x103140>
    1d3c:	0e000000 	cdpeq	0, 0, cr0, cr0, cr0, {0}
    1d40:	00000033 	andeq	r0, r0, r3, lsr r0
    1d44:	00000186 	andeq	r0, r0, r6, lsl #3
    1d48:	0000a30f 	andeq	sl, r0, pc, lsl #6
    1d4c:	10007f00 	andne	r7, r0, r0, lsl #30
    1d50:	000005f3 	strdeq	r0, [r0], -r3
    1d54:	01760901 	cmneq	r6, r1, lsl #18
    1d58:	05010000 	streq	r0, [r1, #-0]
    1d5c:	002e9003 	eoreq	r9, lr, r3
    1d60:	05ff1060 	ldrbeq	r1, [pc, #96]!	; 1dc8 <RT_IRQ_STACK_PGSZ+0x15c8>
    1d64:	0a010000 	beq	41d6c <RT_IRQ_STACK_PGSZ+0x4156c>
    1d68:	00000176 	andeq	r0, r0, r6, ror r1
    1d6c:	90030501 	andls	r0, r3, r1, lsl #10
    1d70:	1060002c 	rsbne	r0, r0, ip, lsr #32
    1d74:	000005af 	andeq	r0, r0, pc, lsr #11
    1d78:	005e0d01 	subseq	r0, lr, r1, lsl #26
    1d7c:	05010000 	streq	r0, [r1, #-0]
    1d80:	00226403 	eoreq	r6, r2, r3, lsl #8
    1d84:	05d51060 	ldrbeq	r1, [r5, #96]	; 0x60
    1d88:	0e010000 	cdpeq	0, 0, cr0, cr1, cr0, {0}
    1d8c:	0000005e 	andeq	r0, r0, lr, asr r0
    1d90:	68030501 	stmdavs	r3, {r0, r8, sl}
    1d94:	10600022 	rsbne	r0, r0, r2, lsr #32
    1d98:	00000595 	muleq	r0, r5, r5
    1d9c:	00d81001 	sbcseq	r1, r8, r1
    1da0:	05010000 	streq	r0, [r1, #-0]
    1da4:	00309003 	eorseq	r9, r0, r3
    1da8:	05a21060 	streq	r1, [r2, #96]!	; 0x60
    1dac:	11010000 	mrsne	r0, (UNDEF: 1)
    1db0:	000000d8 	ldrdeq	r0, [r0], -r8
    1db4:	9c030501 	cfstr32ls	mvfx0, [r3], {1}
    1db8:	00600030 	rsbeq	r0, r0, r0, lsr r0

Disassembly of section .debug_abbrev:

00000000 <.debug_abbrev>:
   0:	10001101 	andne	r1, r0, r1, lsl #2
   4:	12011106 	andne	r1, r1, #-2147483647	; 0x80000001
   8:	1b080301 	blne	200c14 <RT_IRQ_STACK_PGSZ+0x200414>
   c:	13082508 	movwne	r2, #34056	; 0x8508
  10:	00000005 	andeq	r0, r0, r5
  14:	10001101 	andne	r1, r0, r1, lsl #2
  18:	03065506 	movweq	r5, #25862	; 0x6506
  1c:	25081b08 	strcs	r1, [r8, #-2824]	; 0xfffff4f8
  20:	00051308 	andeq	r1, r5, r8, lsl #6
  24:	11010000 	mrsne	r0, (UNDEF: 1)
  28:	55061000 	strpl	r1, [r6, #-0]
  2c:	1b080306 	blne	200c4c <RT_IRQ_STACK_PGSZ+0x20044c>
  30:	13082508 	movwne	r2, #34056	; 0x8508
  34:	00000005 	andeq	r0, r0, r5
  38:	25011101 	strcs	r1, [r1, #-257]	; 0xfffffeff
  3c:	030b130e 	movweq	r1, #45838	; 0xb30e
  40:	110e1b0e 	tstne	lr, lr, lsl #22
  44:	10011201 	andne	r1, r1, r1, lsl #4
  48:	02000006 	andeq	r0, r0, #6
  4c:	0b0b0024 	bleq	2c00e4 <RT_IRQ_STACK_PGSZ+0x2bf8e4>
  50:	0e030b3e 	vmoveq.16	d3[0], r0
  54:	16030000 	strne	r0, [r3], -r0
  58:	3a0e0300 	bcc	380c60 <RT_IRQ_STACK_PGSZ+0x380460>
  5c:	490b3b0b 	stmdbmi	fp, {r0, r1, r3, r8, r9, fp, ip, sp}
  60:	04000013 	streq	r0, [r0], #-19	; 0xffffffed
  64:	0b0b0024 	bleq	2c00fc <RT_IRQ_STACK_PGSZ+0x2bf8fc>
  68:	08030b3e 	stmdaeq	r3, {r1, r2, r3, r4, r5, r8, r9, fp}
  6c:	0f050000 	svceq	0x00050000
  70:	000b0b00 	andeq	r0, fp, r0, lsl #22
  74:	000f0600 	andeq	r0, pc, r0, lsl #12
  78:	13490b0b 	movtne	r0, #39691	; 0x9b0b
  7c:	2e070000 	cdpcs	0, 0, cr0, cr7, cr0, {0}
  80:	030c3f01 	movweq	r3, #52993	; 0xcf01
  84:	3b0b3a0e 	blcc	2ce8c4 <RT_IRQ_STACK_PGSZ+0x2ce0c4>
  88:	490c270b 	stmdbmi	ip, {r0, r1, r3, r8, r9, sl, sp}
  8c:	12011113 	andne	r1, r1, #-1073741820	; 0xc0000004
  90:	97064001 	strls	r4, [r6, -r1]
  94:	13010c42 	movwne	r0, #7234	; 0x1c42
  98:	05080000 	streq	r0, [r8, #-0]
  9c:	3a0e0300 	bcc	380ca4 <RT_IRQ_STACK_PGSZ+0x3804a4>
  a0:	490b3b0b 	stmdbmi	fp, {r0, r1, r3, r8, r9, fp, ip, sp}
  a4:	000a0213 	andeq	r0, sl, r3, lsl r2
  a8:	00050900 	andeq	r0, r5, r0, lsl #18
  ac:	0b3a0803 	bleq	e820c0 <RT_IRQ_STACK_PGSZ+0xe818c0>
  b0:	13490b3b 	movtne	r0, #39739	; 0x9b3b
  b4:	00000a02 	andeq	r0, r0, r2, lsl #20
  b8:	0300340a 	movweq	r3, #1034	; 0x40a
  bc:	3b0b3a08 	blcc	2ce8e4 <RT_IRQ_STACK_PGSZ+0x2ce0e4>
  c0:	0213490b 	andseq	r4, r3, #180224	; 0x2c000
  c4:	0b00000a 	bleq	f4 <I_Bit+0x74>
  c8:	0c270115 	stfeqs	f0, [r7], #-84	; 0xffffffac
  cc:	00001301 	andeq	r1, r0, r1, lsl #6
  d0:	4900050c 	stmdbmi	r0, {r2, r3, r8, sl}
  d4:	00000013 	andeq	r0, r0, r3, lsl r0
  d8:	25011101 	strcs	r1, [r1, #-257]	; 0xfffffeff
  dc:	030b130e 	movweq	r1, #45838	; 0xb30e
  e0:	110e1b0e 	tstne	lr, lr, lsl #22
  e4:	10011201 	andne	r1, r1, r1, lsl #4
  e8:	02000006 	andeq	r0, r0, #6
  ec:	0e030016 	mcreq	0, 0, r0, cr3, cr6, {0}
  f0:	0b3b0b3a 	bleq	ec2de0 <RT_IRQ_STACK_PGSZ+0xec25e0>
  f4:	00001349 	andeq	r1, r0, r9, asr #6
  f8:	0b002403 	bleq	910c <RT_IRQ_STACK_PGSZ+0x890c>
  fc:	030b3e0b 	movweq	r3, #48651	; 0xbe0b
 100:	0400000e 	streq	r0, [r0], #-14
 104:	0b0b0024 	bleq	2c019c <RT_IRQ_STACK_PGSZ+0x2bf99c>
 108:	08030b3e 	stmdaeq	r3, {r1, r2, r3, r4, r5, r8, r9, fp}
 10c:	13050000 	movwne	r0, #20480	; 0x5000
 110:	0b0e0301 	bleq	380d1c <RT_IRQ_STACK_PGSZ+0x38051c>
 114:	3b0b3a0b 	blcc	2ce948 <RT_IRQ_STACK_PGSZ+0x2ce148>
 118:	0013010b 	andseq	r0, r3, fp, lsl #2
 11c:	000d0600 	andeq	r0, sp, r0, lsl #12
 120:	0b3a0e03 	bleq	e83934 <RT_IRQ_STACK_PGSZ+0xe83134>
 124:	13490b3b 	movtne	r0, #39739	; 0x9b3b
 128:	00000a38 	andeq	r0, r0, r8, lsr sl
 12c:	0b000f07 	bleq	3d50 <RT_IRQ_STACK_PGSZ+0x3550>
 130:	0013490b 	andseq	r4, r3, fp, lsl #18
 134:	01150800 	tsteq	r5, r0, lsl #16
 138:	13490c27 	movtne	r0, #39975	; 0x9c27
 13c:	00001301 	andeq	r1, r0, r1, lsl #6
 140:	49000509 	stmdbmi	r0, {r0, r3, r8, sl}
 144:	0a000013 	beq	198 <I_Bit+0x118>
 148:	13490026 	movtne	r0, #36902	; 0x9026
 14c:	170b0000 	strne	r0, [fp, -r0]
 150:	0b0e0301 	bleq	380d5c <RT_IRQ_STACK_PGSZ+0x38055c>
 154:	3b0b3a0b 	blcc	2ce988 <RT_IRQ_STACK_PGSZ+0x2ce188>
 158:	0013010b 	andseq	r0, r3, fp, lsl #2
 15c:	000d0c00 	andeq	r0, sp, r0, lsl #24
 160:	0b3a0e03 	bleq	e83974 <RT_IRQ_STACK_PGSZ+0xe83174>
 164:	13490b3b 	movtne	r0, #39739	; 0x9b3b
 168:	0d0d0000 	stceq	0, cr0, [sp, #-0]
 16c:	3a080300 	bcc	200d74 <RT_IRQ_STACK_PGSZ+0x200574>
 170:	490b3b0b 	stmdbmi	fp, {r0, r1, r3, r8, r9, fp, ip, sp}
 174:	000a3813 	andeq	r3, sl, r3, lsl r8
 178:	000f0e00 	andeq	r0, pc, r0, lsl #28
 17c:	00000b0b 	andeq	r0, r0, fp, lsl #22
 180:	4901010f 	stmdbmi	r1, {r0, r1, r2, r3, r8}
 184:	00130113 	andseq	r0, r3, r3, lsl r1
 188:	00211000 	eoreq	r1, r1, r0
 18c:	0b2f1349 	bleq	bc4eb8 <RT_IRQ_STACK_PGSZ+0xbc46b8>
 190:	26110000 	ldrcs	r0, [r1], -r0
 194:	12000000 	andne	r0, r0, #0
 198:	0e03012e 	adfeqsp	f0, f3, #0.5
 19c:	0b3b0b3a 	bleq	ec2e8c <RT_IRQ_STACK_PGSZ+0xec268c>
 1a0:	01110c27 	tsteq	r1, r7, lsr #24
 1a4:	06400112 			; <UNDEFINED> instruction: 0x06400112
 1a8:	010c4297 			; <UNDEFINED> instruction: 0x010c4297
 1ac:	13000013 	movwne	r0, #19
 1b0:	0e030005 	cdpeq	0, 0, cr0, cr3, cr5, {0}
 1b4:	0b3b0b3a 	bleq	ec2ea4 <RT_IRQ_STACK_PGSZ+0xec26a4>
 1b8:	0a021349 	beq	84ee4 <RT_IRQ_STACK_PGSZ+0x846e4>
 1bc:	2e140000 	cdpcs	0, 1, cr0, cr4, cr0, {0}
 1c0:	3a0e0301 	bcc	380dcc <RT_IRQ_STACK_PGSZ+0x3805cc>
 1c4:	270b3b0b 	strcs	r3, [fp, -fp, lsl #22]
 1c8:	1113490c 	tstne	r3, ip, lsl #18
 1cc:	40011201 	andmi	r1, r1, r1, lsl #4
 1d0:	0c429706 	mcrreq	7, 0, r9, r2, cr6
 1d4:	00001301 	andeq	r1, r0, r1, lsl #6
 1d8:	03012e15 	movweq	r2, #7701	; 0x1e15
 1dc:	3b0b3a0e 	blcc	2cea1c <RT_IRQ_STACK_PGSZ+0x2ce21c>
 1e0:	110c270b 	tstne	ip, fp, lsl #14
 1e4:	40011201 	andmi	r1, r1, r1, lsl #4
 1e8:	0c429606 	mcrreq	6, 0, r9, r2, cr6
 1ec:	00001301 	andeq	r1, r0, r1, lsl #6
 1f0:	03012e16 	movweq	r2, #7702	; 0x1e16
 1f4:	3b0b3a0e 	blcc	2cea34 <RT_IRQ_STACK_PGSZ+0x2ce234>
 1f8:	490c270b 	stmdbmi	ip, {r0, r1, r3, r8, r9, sl, sp}
 1fc:	12011113 	andne	r1, r1, #-1073741820	; 0xc0000004
 200:	96064001 	strls	r4, [r6], -r1
 204:	13010c42 	movwne	r0, #7234	; 0x1c42
 208:	2e170000 	cdpcs	0, 1, cr0, cr7, cr0, {0}
 20c:	030c3f01 	movweq	r3, #52993	; 0xcf01
 210:	3b0b3a0e 	blcc	2cea50 <RT_IRQ_STACK_PGSZ+0x2ce250>
 214:	110c270b 	tstne	ip, fp, lsl #14
 218:	40011201 	andmi	r1, r1, r1, lsl #4
 21c:	0c429606 	mcrreq	6, 0, r9, r2, cr6
 220:	00001301 	andeq	r1, r0, r1, lsl #6
 224:	03003418 	movweq	r3, #1048	; 0x418
 228:	3b0b3a0e 	blcc	2cea68 <RT_IRQ_STACK_PGSZ+0x2ce268>
 22c:	0213490b 	andseq	r4, r3, #180224	; 0x2c000
 230:	1900000a 	stmdbne	r0, {r1, r3}
 234:	08030034 	stmdaeq	r3, {r2, r4, r5}
 238:	0b3b0b3a 	bleq	ec2f28 <RT_IRQ_STACK_PGSZ+0xec2728>
 23c:	0a021349 	beq	84f68 <RT_IRQ_STACK_PGSZ+0x84768>
 240:	151a0000 	ldrne	r0, [sl, #-0]
 244:	010c2701 	tsteq	ip, r1, lsl #14
 248:	1b000013 	blne	29c <I_Bit+0x21c>
 24c:	0111010b 	tsteq	r1, fp, lsl #2
 250:	00000112 	andeq	r0, r0, r2, lsl r1
 254:	3f012e1c 	svccc	0x00012e1c
 258:	3a0e030c 	bcc	380e90 <RT_IRQ_STACK_PGSZ+0x380690>
 25c:	270b3b0b 	strcs	r3, [fp, -fp, lsl #22]
 260:	1201110c 	andne	r1, r1, #12, 2
 264:	97064001 	strls	r4, [r6, -r1]
 268:	13010c42 	movwne	r0, #7234	; 0x1c42
 26c:	2e1d0000 	cdpcs	0, 1, cr0, cr13, cr0, {0}
 270:	3a0e0300 	bcc	380e78 <RT_IRQ_STACK_PGSZ+0x380678>
 274:	270b3b0b 	strcs	r3, [fp, -fp, lsl #22]
 278:	1113490c 	tstne	r3, ip, lsl #18
 27c:	40011201 	andmi	r1, r1, r1, lsl #4
 280:	0c429706 	mcrreq	7, 0, r9, r2, cr6
 284:	2e1e0000 	cdpcs	0, 1, cr0, cr14, cr0, {0}
 288:	030c3f01 	movweq	r3, #52993	; 0xcf01
 28c:	3b0b3a0e 	blcc	2ceacc <RT_IRQ_STACK_PGSZ+0x2ce2cc>
 290:	490c2705 	stmdbmi	ip, {r0, r2, r8, r9, sl, sp}
 294:	12011113 	andne	r1, r1, #-1073741820	; 0xc0000004
 298:	96064001 	strls	r4, [r6], -r1
 29c:	13010c42 	movwne	r0, #7234	; 0x1c42
 2a0:	341f0000 	ldrcc	r0, [pc], #-0	; 2a8 <I_Bit+0x228>
 2a4:	3a0e0300 	bcc	380eac <RT_IRQ_STACK_PGSZ+0x3806ac>
 2a8:	49053b0b 	stmdbmi	r5, {r0, r1, r3, r8, r9, fp, ip, sp}
 2ac:	000a0213 	andeq	r0, sl, r3, lsl r2
 2b0:	002e2000 	eoreq	r2, lr, r0
 2b4:	0e030c3f 	mcreq	12, 0, r0, cr3, cr15, {1}
 2b8:	053b0b3a 	ldreq	r0, [fp, #-2874]!	; 0xfffff4c6
 2bc:	01110c27 	tsteq	r1, r7, lsr #24
 2c0:	06400112 			; <UNDEFINED> instruction: 0x06400112
 2c4:	000c4296 	muleq	ip, r6, r2
 2c8:	00342100 	eorseq	r2, r4, r0, lsl #2
 2cc:	0b3a0e03 	bleq	e83ae0 <RT_IRQ_STACK_PGSZ+0xe832e0>
 2d0:	13490b3b 	movtne	r0, #39739	; 0x9b3b
 2d4:	0a020c3f 	beq	833d8 <RT_IRQ_STACK_PGSZ+0x82bd8>
 2d8:	35220000 	strcc	r0, [r2, #-0]!
 2dc:	00134900 	andseq	r4, r3, r0, lsl #18
 2e0:	11010000 	mrsne	r0, (UNDEF: 1)
 2e4:	130e2501 	movwne	r2, #58625	; 0xe501
 2e8:	1b0e030b 	blne	380f1c <RT_IRQ_STACK_PGSZ+0x38071c>
 2ec:	1201110e 	andne	r1, r1, #-2147483645	; 0x80000003
 2f0:	00061001 	andeq	r1, r6, r1
 2f4:	00240200 	eoreq	r0, r4, r0, lsl #4
 2f8:	0b3e0b0b 	bleq	f82f2c <RT_IRQ_STACK_PGSZ+0xf8272c>
 2fc:	00000e03 	andeq	r0, r0, r3, lsl #28
 300:	03001603 	movweq	r1, #1539	; 0x603
 304:	3b0b3a0e 	blcc	2ceb44 <RT_IRQ_STACK_PGSZ+0x2ce344>
 308:	0013490b 	andseq	r4, r3, fp, lsl #18
 30c:	00240400 	eoreq	r0, r4, r0, lsl #8
 310:	0b3e0b0b 	bleq	f82f44 <RT_IRQ_STACK_PGSZ+0xf82744>
 314:	00000803 	andeq	r0, r0, r3, lsl #16
 318:	0b000f05 	bleq	3f34 <RT_IRQ_STACK_PGSZ+0x3734>
 31c:	0600000b 	streq	r0, [r0], -fp
 320:	0e03012e 	adfeqsp	f0, f3, #0.5
 324:	0b3b0b3a 	bleq	ec3014 <RT_IRQ_STACK_PGSZ+0xec2814>
 328:	01110c27 	tsteq	r1, r7, lsr #24
 32c:	06400112 			; <UNDEFINED> instruction: 0x06400112
 330:	010c4297 			; <UNDEFINED> instruction: 0x010c4297
 334:	07000013 	smladeq	r0, r3, r0, r0
 338:	08030005 	stmdaeq	r3, {r0, r2}
 33c:	0b3b0b3a 	bleq	ec302c <RT_IRQ_STACK_PGSZ+0xec282c>
 340:	0a021349 	beq	8506c <RT_IRQ_STACK_PGSZ+0x8486c>
 344:	2e080000 	cdpcs	0, 0, cr0, cr8, cr0, {0}
 348:	030c3f00 	movweq	r3, #52992	; 0xcf00
 34c:	3b0b3a0e 	blcc	2ceb8c <RT_IRQ_STACK_PGSZ+0x2ce38c>
 350:	110c270b 	tstne	ip, fp, lsl #14
 354:	40011201 	andmi	r1, r1, r1, lsl #4
 358:	0c429606 	mcrreq	6, 0, r9, r2, cr6
 35c:	01090000 	mrseq	r0, (UNDEF: 9)
 360:	01134901 	tsteq	r3, r1, lsl #18
 364:	0a000013 	beq	3b8 <I_Bit+0x338>
 368:	13490021 	movtne	r0, #36897	; 0x9021
 36c:	00000b2f 	andeq	r0, r0, pc, lsr #22
 370:	0300340b 	movweq	r3, #1035	; 0x40b
 374:	3b0b3a0e 	blcc	2cebb4 <RT_IRQ_STACK_PGSZ+0x2ce3b4>
 378:	0213490b 	andseq	r4, r3, #180224	; 0x2c000
 37c:	0000000a 	andeq	r0, r0, sl
 380:	25011101 	strcs	r1, [r1, #-257]	; 0xfffffeff
 384:	030b130e 	movweq	r1, #45838	; 0xb30e
 388:	110e1b0e 	tstne	lr, lr, lsl #22
 38c:	10011201 	andne	r1, r1, r1, lsl #4
 390:	02000006 	andeq	r0, r0, #6
 394:	0e030016 	mcreq	0, 0, r0, cr3, cr6, {0}
 398:	0b3b0b3a 	bleq	ec3088 <RT_IRQ_STACK_PGSZ+0xec2888>
 39c:	00001349 	andeq	r1, r0, r9, asr #6
 3a0:	0b002403 	bleq	93b4 <RT_IRQ_STACK_PGSZ+0x8bb4>
 3a4:	030b3e0b 	movweq	r3, #48651	; 0xbe0b
 3a8:	0400000e 	streq	r0, [r0], #-14
 3ac:	0b0b0024 	bleq	2c0444 <RT_IRQ_STACK_PGSZ+0x2bfc44>
 3b0:	08030b3e 	stmdaeq	r3, {r1, r2, r3, r4, r5, r8, r9, fp}
 3b4:	13050000 	movwne	r0, #20480	; 0x5000
 3b8:	0b0e0301 	bleq	380fc4 <RT_IRQ_STACK_PGSZ+0x3807c4>
 3bc:	3b0b3a0b 	blcc	2cebf0 <RT_IRQ_STACK_PGSZ+0x2ce3f0>
 3c0:	0013010b 	andseq	r0, r3, fp, lsl #2
 3c4:	000d0600 	andeq	r0, sp, r0, lsl #12
 3c8:	0b3a0e03 	bleq	e83bdc <RT_IRQ_STACK_PGSZ+0xe833dc>
 3cc:	13490b3b 	movtne	r0, #39739	; 0x9b3b
 3d0:	00000a38 	andeq	r0, r0, r8, lsr sl
 3d4:	0b000f07 	bleq	3ff8 <RT_IRQ_STACK_PGSZ+0x37f8>
 3d8:	0013490b 	andseq	r4, r3, fp, lsl #18
 3dc:	01150800 	tsteq	r5, r0, lsl #16
 3e0:	13490c27 	movtne	r0, #39975	; 0x9c27
 3e4:	00001301 	andeq	r1, r0, r1, lsl #6
 3e8:	49000509 	stmdbmi	r0, {r0, r3, r8, sl}
 3ec:	0a000013 	beq	440 <SVC_Stack_Size+0x40>
 3f0:	13490026 	movtne	r0, #36902	; 0x9026
 3f4:	170b0000 	strne	r0, [fp, -r0]
 3f8:	0b0e0301 	bleq	381004 <RT_IRQ_STACK_PGSZ+0x380804>
 3fc:	3b0b3a0b 	blcc	2cec30 <RT_IRQ_STACK_PGSZ+0x2ce430>
 400:	0013010b 	andseq	r0, r3, fp, lsl #2
 404:	000d0c00 	andeq	r0, sp, r0, lsl #24
 408:	0b3a0e03 	bleq	e83c1c <RT_IRQ_STACK_PGSZ+0xe8341c>
 40c:	13490b3b 	movtne	r0, #39739	; 0x9b3b
 410:	0d0d0000 	stceq	0, cr0, [sp, #-0]
 414:	3a080300 	bcc	20101c <RT_IRQ_STACK_PGSZ+0x20081c>
 418:	490b3b0b 	stmdbmi	fp, {r0, r1, r3, r8, r9, fp, ip, sp}
 41c:	000a3813 	andeq	r3, sl, r3, lsl r8
 420:	000f0e00 	andeq	r0, pc, r0, lsl #28
 424:	00000b0b 	andeq	r0, r0, fp, lsl #22
 428:	4901010f 	stmdbmi	r1, {r0, r1, r2, r3, r8}
 42c:	00130113 	andseq	r0, r3, r3, lsl r1
 430:	00211000 	eoreq	r1, r1, r0
 434:	0b2f1349 	bleq	bc5160 <RT_IRQ_STACK_PGSZ+0xbc4960>
 438:	26110000 	ldrcs	r0, [r1], -r0
 43c:	12000000 	andne	r0, r0, #0
 440:	0c3f012e 	ldfeqs	f0, [pc], #-184	; 390 <I_Bit+0x310>
 444:	0b3a0e03 	bleq	e83c58 <RT_IRQ_STACK_PGSZ+0xe83458>
 448:	0c270b3b 	stceq	11, cr0, [r7], #-236	; 0xffffff14
 44c:	01120111 	tsteq	r2, r1, lsl r1
 450:	42960640 	addsmi	r0, r6, #64, 12	; 0x4000000
 454:	0013010c 	andseq	r0, r3, ip, lsl #2
 458:	00051300 	andeq	r1, r5, r0, lsl #6
 45c:	0b3a0e03 	bleq	e83c70 <RT_IRQ_STACK_PGSZ+0xe83470>
 460:	13490b3b 	movtne	r0, #39739	; 0x9b3b
 464:	00000a02 	andeq	r0, r0, r2, lsl #20
 468:	03003414 	movweq	r3, #1044	; 0x414
 46c:	3b0b3a0e 	blcc	2cecac <RT_IRQ_STACK_PGSZ+0x2ce4ac>
 470:	0213490b 	andseq	r4, r3, #180224	; 0x2c000
 474:	1500000a 	strne	r0, [r0, #-10]
 478:	0e030034 	mcreq	0, 0, r0, cr3, cr4, {1}
 47c:	0b3b0b3a 	bleq	ec316c <RT_IRQ_STACK_PGSZ+0xec296c>
 480:	0c3f1349 	ldceq	3, cr1, [pc], #-292	; 364 <I_Bit+0x2e4>
 484:	00000c3c 	andeq	r0, r0, ip, lsr ip
 488:	49003516 	stmdbmi	r0, {r1, r2, r4, r8, sl, ip, sp}
 48c:	00000013 	andeq	r0, r0, r3, lsl r0
 490:	25011101 	strcs	r1, [r1, #-257]	; 0xfffffeff
 494:	030b130e 	movweq	r1, #45838	; 0xb30e
 498:	110e1b0e 	tstne	lr, lr, lsl #22
 49c:	10011201 	andne	r1, r1, r1, lsl #4
 4a0:	02000006 	andeq	r0, r0, #6
 4a4:	0e030016 	mcreq	0, 0, r0, cr3, cr6, {0}
 4a8:	0b3b0b3a 	bleq	ec3198 <RT_IRQ_STACK_PGSZ+0xec2998>
 4ac:	00001349 	andeq	r1, r0, r9, asr #6
 4b0:	0b002403 	bleq	94c4 <RT_IRQ_STACK_PGSZ+0x8cc4>
 4b4:	030b3e0b 	movweq	r3, #48651	; 0xbe0b
 4b8:	0400000e 	streq	r0, [r0], #-14
 4bc:	0b0b0024 	bleq	2c0554 <RT_IRQ_STACK_PGSZ+0x2bfd54>
 4c0:	08030b3e 	stmdaeq	r3, {r1, r2, r3, r4, r5, r8, r9, fp}
 4c4:	13050000 	movwne	r0, #20480	; 0x5000
 4c8:	0b0e0301 	bleq	3810d4 <RT_IRQ_STACK_PGSZ+0x3808d4>
 4cc:	3b0b3a0b 	blcc	2ced00 <RT_IRQ_STACK_PGSZ+0x2ce500>
 4d0:	0013010b 	andseq	r0, r3, fp, lsl #2
 4d4:	000d0600 	andeq	r0, sp, r0, lsl #12
 4d8:	0b3a0e03 	bleq	e83cec <RT_IRQ_STACK_PGSZ+0xe834ec>
 4dc:	13490b3b 	movtne	r0, #39739	; 0x9b3b
 4e0:	00000a38 	andeq	r0, r0, r8, lsr sl
 4e4:	0b000f07 	bleq	4108 <RT_IRQ_STACK_PGSZ+0x3908>
 4e8:	0013490b 	andseq	r4, r3, fp, lsl #18
 4ec:	01150800 	tsteq	r5, r0, lsl #16
 4f0:	13490c27 	movtne	r0, #39975	; 0x9c27
 4f4:	00001301 	andeq	r1, r0, r1, lsl #6
 4f8:	49000509 	stmdbmi	r0, {r0, r3, r8, sl}
 4fc:	0a000013 	beq	550 <SVC_Stack_Size+0x150>
 500:	13490026 	movtne	r0, #36902	; 0x9026
 504:	170b0000 	strne	r0, [fp, -r0]
 508:	0b0e0301 	bleq	381114 <RT_IRQ_STACK_PGSZ+0x380914>
 50c:	3b0b3a0b 	blcc	2ced40 <RT_IRQ_STACK_PGSZ+0x2ce540>
 510:	0013010b 	andseq	r0, r3, fp, lsl #2
 514:	000d0c00 	andeq	r0, sp, r0, lsl #24
 518:	0b3a0e03 	bleq	e83d2c <RT_IRQ_STACK_PGSZ+0xe8352c>
 51c:	13490b3b 	movtne	r0, #39739	; 0x9b3b
 520:	0d0d0000 	stceq	0, cr0, [sp, #-0]
 524:	3a080300 	bcc	20112c <RT_IRQ_STACK_PGSZ+0x20092c>
 528:	490b3b0b 	stmdbmi	fp, {r0, r1, r3, r8, r9, fp, ip, sp}
 52c:	000a3813 	andeq	r3, sl, r3, lsl r8
 530:	000f0e00 	andeq	r0, pc, r0, lsl #28
 534:	00000b0b 	andeq	r0, r0, fp, lsl #22
 538:	4901010f 	stmdbmi	r1, {r0, r1, r2, r3, r8}
 53c:	00130113 	andseq	r0, r3, r3, lsl r1
 540:	00211000 	eoreq	r1, r1, r0
 544:	0b2f1349 	bleq	bc5270 <RT_IRQ_STACK_PGSZ+0xbc4a70>
 548:	26110000 	ldrcs	r0, [r1], -r0
 54c:	12000000 	andne	r0, r0, #0
 550:	13490035 	movtne	r0, #36917	; 0x9035
 554:	2e130000 	cdpcs	0, 1, cr0, cr3, cr0, {0}
 558:	3a0e0301 	bcc	381164 <RT_IRQ_STACK_PGSZ+0x380964>
 55c:	270b3b0b 	strcs	r3, [fp, -fp, lsl #22]
 560:	1201110c 	andne	r1, r1, #12, 2
 564:	97064001 	strls	r4, [r6, -r1]
 568:	13010c42 	movwne	r0, #7234	; 0x1c42
 56c:	05140000 	ldreq	r0, [r4, #-0]
 570:	3a0e0300 	bcc	381178 <RT_IRQ_STACK_PGSZ+0x380978>
 574:	490b3b0b 	stmdbmi	fp, {r0, r1, r3, r8, r9, fp, ip, sp}
 578:	000a0213 	andeq	r0, sl, r3, lsl r2
 57c:	012e1500 			; <UNDEFINED> instruction: 0x012e1500
 580:	0b3a0e03 	bleq	e83d94 <RT_IRQ_STACK_PGSZ+0xe83594>
 584:	0c270b3b 	stceq	11, cr0, [r7], #-236	; 0xffffff14
 588:	01111349 	tsteq	r1, r9, asr #6
 58c:	06400112 			; <UNDEFINED> instruction: 0x06400112
 590:	010c4297 			; <UNDEFINED> instruction: 0x010c4297
 594:	16000013 			; <UNDEFINED> instruction: 0x16000013
 598:	0e03012e 	adfeqsp	f0, f3, #0.5
 59c:	0b3b0b3a 	bleq	ec328c <RT_IRQ_STACK_PGSZ+0xec2a8c>
 5a0:	01110c27 	tsteq	r1, r7, lsr #24
 5a4:	06400112 			; <UNDEFINED> instruction: 0x06400112
 5a8:	010c4296 			; <UNDEFINED> instruction: 0x010c4296
 5ac:	17000013 	smladne	r0, r3, r0, r0
 5b0:	0e03012e 	adfeqsp	f0, f3, #0.5
 5b4:	0b3b0b3a 	bleq	ec32a4 <RT_IRQ_STACK_PGSZ+0xec2aa4>
 5b8:	13490c27 	movtne	r0, #39975	; 0x9c27
 5bc:	01120111 	tsteq	r2, r1, lsl r1
 5c0:	42960640 	addsmi	r0, r6, #64, 12	; 0x4000000
 5c4:	0013010c 	andseq	r0, r3, ip, lsl #2
 5c8:	012e1800 			; <UNDEFINED> instruction: 0x012e1800
 5cc:	0e030c3f 	mcreq	12, 0, r0, cr3, cr15, {1}
 5d0:	0b3b0b3a 	bleq	ec32c0 <RT_IRQ_STACK_PGSZ+0xec2ac0>
 5d4:	13490c27 	movtne	r0, #39975	; 0x9c27
 5d8:	01120111 	tsteq	r2, r1, lsl r1
 5dc:	42960640 	addsmi	r0, r6, #64, 12	; 0x4000000
 5e0:	0013010c 	andseq	r0, r3, ip, lsl #2
 5e4:	00051900 	andeq	r1, r5, r0, lsl #18
 5e8:	0b3a0803 	bleq	e825fc <RT_IRQ_STACK_PGSZ+0xe81dfc>
 5ec:	13490b3b 	movtne	r0, #39739	; 0x9b3b
 5f0:	00000a02 	andeq	r0, r0, r2, lsl #20
 5f4:	0300341a 	movweq	r3, #1050	; 0x41a
 5f8:	3b0b3a0e 	blcc	2cee38 <RT_IRQ_STACK_PGSZ+0x2ce638>
 5fc:	0213490b 	andseq	r4, r3, #180224	; 0x2c000
 600:	1b00000a 	blne	630 <SVC_Stack_Size+0x230>
 604:	0111010b 	tsteq	r1, fp, lsl #2
 608:	00000112 	andeq	r0, r0, r2, lsl r1
 60c:	0300341c 	movweq	r3, #1052	; 0x41c
 610:	3b0b3a0e 	blcc	2cee50 <RT_IRQ_STACK_PGSZ+0x2ce650>
 614:	3f13490b 	svccc	0x0013490b
 618:	000c3c0c 	andeq	r3, ip, ip, lsl #24
 61c:	11010000 	mrsne	r0, (UNDEF: 1)
 620:	130e2501 	movwne	r2, #58625	; 0xe501
 624:	1b0e030b 	blne	381258 <RT_IRQ_STACK_PGSZ+0x380a58>
 628:	1201110e 	andne	r1, r1, #-2147483645	; 0x80000003
 62c:	00061001 	andeq	r1, r6, r1
 630:	00240200 	eoreq	r0, r4, r0, lsl #4
 634:	0b3e0b0b 	bleq	f83268 <RT_IRQ_STACK_PGSZ+0xf82a68>
 638:	00000e03 	andeq	r0, r0, r3, lsl #28
 63c:	03001603 	movweq	r1, #1539	; 0x603
 640:	3b0b3a0e 	blcc	2cee80 <RT_IRQ_STACK_PGSZ+0x2ce680>
 644:	0013490b 	andseq	r4, r3, fp, lsl #18
 648:	00240400 	eoreq	r0, r4, r0, lsl #8
 64c:	0b3e0b0b 	bleq	f83280 <RT_IRQ_STACK_PGSZ+0xf82a80>
 650:	00000803 	andeq	r0, r0, r3, lsl #16
 654:	03011305 	movweq	r1, #4869	; 0x1305
 658:	3a0b0b0e 	bcc	2c3298 <RT_IRQ_STACK_PGSZ+0x2c2a98>
 65c:	010b3b0b 	tsteq	fp, fp, lsl #22
 660:	06000013 			; <UNDEFINED> instruction: 0x06000013
 664:	0e03000d 	cdpeq	0, 0, cr0, cr3, cr13, {0}
 668:	0b3b0b3a 	bleq	ec3358 <RT_IRQ_STACK_PGSZ+0xec2b58>
 66c:	0a381349 	beq	e05398 <RT_IRQ_STACK_PGSZ+0xe04b98>
 670:	0f070000 	svceq	0x00070000
 674:	490b0b00 	stmdbmi	fp, {r8, r9, fp}
 678:	08000013 	stmdaeq	r0, {r0, r1, r4}
 67c:	0b0b000f 	bleq	2c06c0 <RT_IRQ_STACK_PGSZ+0x2bfec0>
 680:	35090000 	strcc	r0, [r9, #-0]
 684:	00134900 	andseq	r4, r3, r0, lsl #18
 688:	012e0a00 			; <UNDEFINED> instruction: 0x012e0a00
 68c:	0e030c3f 	mcreq	12, 0, r0, cr3, cr15, {1}
 690:	0b3b0b3a 	bleq	ec3380 <RT_IRQ_STACK_PGSZ+0xec2b80>
 694:	01110c27 	tsteq	r1, r7, lsr #24
 698:	06400112 			; <UNDEFINED> instruction: 0x06400112
 69c:	010c4296 			; <UNDEFINED> instruction: 0x010c4296
 6a0:	0b000013 	bleq	6f4 <SVC_Stack_Size+0x2f4>
 6a4:	08030005 	stmdaeq	r3, {r0, r2}
 6a8:	0b3b0b3a 	bleq	ec3398 <RT_IRQ_STACK_PGSZ+0xec2b98>
 6ac:	0a021349 	beq	853d8 <RT_IRQ_STACK_PGSZ+0x84bd8>
 6b0:	2e0c0000 	cdpcs	0, 0, cr0, cr12, cr0, {0}
 6b4:	030c3f01 	movweq	r3, #52993	; 0xcf01
 6b8:	3b0b3a0e 	blcc	2ceef8 <RT_IRQ_STACK_PGSZ+0x2ce6f8>
 6bc:	490c270b 	stmdbmi	ip, {r0, r1, r3, r8, r9, sl, sp}
 6c0:	12011113 	andne	r1, r1, #-1073741820	; 0xc0000004
 6c4:	96064001 	strls	r4, [r6], -r1
 6c8:	13010c42 	movwne	r0, #7234	; 0x1c42
 6cc:	050d0000 	streq	r0, [sp, #-0]
 6d0:	3a0e0300 	bcc	3812d8 <RT_IRQ_STACK_PGSZ+0x380ad8>
 6d4:	490b3b0b 	stmdbmi	fp, {r0, r1, r3, r8, r9, fp, ip, sp}
 6d8:	000a0213 	andeq	r0, sl, r3, lsl r2
 6dc:	01010e00 	tsteq	r1, r0, lsl #28
 6e0:	13011349 	movwne	r1, #4937	; 0x1349
 6e4:	210f0000 	mrscs	r0, CPSR
 6e8:	2f134900 	svccs	0x00134900
 6ec:	1000000b 	andne	r0, r0, fp
 6f0:	0e030034 	mcreq	0, 0, r0, cr3, cr4, {1}
 6f4:	0b3b0b3a 	bleq	ec33e4 <RT_IRQ_STACK_PGSZ+0xec2be4>
 6f8:	0c3f1349 	ldceq	3, cr1, [pc], #-292	; 5dc <SVC_Stack_Size+0x1dc>
 6fc:	00000a02 	andeq	r0, r0, r2, lsl #20
	...

Disassembly of section .debug_aranges:

00000000 <.debug_aranges>:
   0:	0000001c 	andeq	r0, r0, ip, lsl r0
   4:	00000002 	andeq	r0, r0, r2
   8:	00040000 	andeq	r0, r4, r0
   c:	00000000 	andeq	r0, r0, r0
  10:	60000000 	andvs	r0, r0, r0
  14:	00000040 	andeq	r0, r0, r0, asr #32
	...
  20:	00000024 	andeq	r0, r0, r4, lsr #32
  24:	008b0002 	addeq	r0, fp, r2
  28:	00040000 	andeq	r0, r4, r0
  2c:	00000000 	andeq	r0, r0, r0
  30:	60000040 	andvs	r0, r0, r0, asr #32
  34:	000000b0 	strheq	r0, [r0], -r0	; <UNPREDICTABLE>
  38:	60001260 	andvs	r1, r0, r0, ror #4
  3c:	00000088 	andeq	r0, r0, r8, lsl #1
	...
  48:	00000024 	andeq	r0, r0, r4, lsr #32
  4c:	01110002 	tsteq	r1, r2
  50:	00040000 	andeq	r0, r4, r0
  54:	00000000 	andeq	r0, r0, r0
  58:	600000f0 	strdvs	r0, [r0], -r0	; <UNPREDICTABLE>
  5c:	00000028 	andeq	r0, r0, r8, lsr #32
  60:	600012e8 	andvs	r1, r0, r8, ror #5
  64:	0000006c 	andeq	r0, r0, ip, rrx
	...
  70:	0000001c 	andeq	r0, r0, ip, lsl r0
  74:	01980002 	orrseq	r0, r8, r2
  78:	00040000 	andeq	r0, r4, r0
  7c:	00000000 	andeq	r0, r0, r0
  80:	60000118 	andvs	r0, r0, r8, lsl r1
  84:	000001d8 	ldrdeq	r0, [r0], -r8
	...
  90:	0000001c 	andeq	r0, r0, ip, lsl r0
  94:	028b0002 	addeq	r0, fp, #2
  98:	00040000 	andeq	r0, r4, r0
  9c:	00000000 	andeq	r0, r0, r0
  a0:	600002f0 	strdvs	r0, [r0], -r0	; <UNPREDICTABLE>
  a4:	000008fc 	strdeq	r0, [r0], -ip
	...
  b0:	0000001c 	andeq	r0, r0, ip, lsl r0
  b4:	0cf90002 	ldcleq	0, cr0, [r9], #8
  b8:	00040000 	andeq	r0, r4, r0
  bc:	00000000 	andeq	r0, r0, r0
  c0:	60000bec 	andvs	r0, r0, ip, ror #23
  c4:	00000064 	andeq	r0, r0, r4, rrx
	...
  d0:	0000001c 	andeq	r0, r0, ip, lsl r0
  d4:	0dd40002 	ldcleq	0, cr0, [r4, #8]
  d8:	00040000 	andeq	r0, r4, r0
  dc:	00000000 	andeq	r0, r0, r0
  e0:	60000c50 	andvs	r0, r0, r0, asr ip
  e4:	00000080 	andeq	r0, r0, r0, lsl #1
	...
  f0:	0000001c 	andeq	r0, r0, ip, lsl r0
  f4:	137d0002 	cmnne	sp, #2
  f8:	00040000 	andeq	r0, r4, r0
  fc:	00000000 	andeq	r0, r0, r0
 100:	60000cd0 	ldrdvs	r0, [r0], -r0	; <UNPREDICTABLE>
 104:	00000480 	andeq	r0, r0, r0, lsl #9
	...
 110:	0000001c 	andeq	r0, r0, ip, lsl r0
 114:	1bc90002 	blne	ff240124 <__bss_end+0x9f23d07c>
 118:	00040000 	andeq	r0, r4, r0
 11c:	00000000 	andeq	r0, r0, r0
 120:	60001150 	andvs	r1, r0, r0, asr r1
 124:	00000110 	andeq	r0, r0, r0, lsl r1
	...

Disassembly of section .debug_ranges:

00000000 <.debug_ranges>:
   0:	ffffffff 			; <UNDEFINED> instruction: 0xffffffff
   4:	00000000 	andeq	r0, r0, r0
   8:	60000040 	andvs	r0, r0, r0, asr #32
   c:	600000f0 	strdvs	r0, [r0], -r0	; <UNPREDICTABLE>
  10:	60001260 	andvs	r1, r0, r0, ror #4
  14:	600012e8 	andvs	r1, r0, r8, ror #5
	...
  20:	ffffffff 			; <UNDEFINED> instruction: 0xffffffff
  24:	00000000 	andeq	r0, r0, r0
  28:	600000f0 	strdvs	r0, [r0], -r0	; <UNPREDICTABLE>
  2c:	60000118 	andvs	r0, r0, r8, lsl r1
  30:	600012e8 	andvs	r1, r0, r8, ror #5
  34:	60001354 	andvs	r1, r0, r4, asr r3
	...

Disassembly of section .debug_loc:

00000000 <.debug_loc>:
   0:	00000000 	andeq	r0, r0, r0
   4:	00000004 	andeq	r0, r0, r4
   8:	007d0002 	rsbseq	r0, sp, r2
   c:	00000004 	andeq	r0, r0, r4
  10:	00000008 	andeq	r0, r0, r8
  14:	047d0002 	ldrbteq	r0, [sp], #-2
  18:	00000008 	andeq	r0, r0, r8
  1c:	000001d0 	ldrdeq	r0, [r0], -r0	; <UNPREDICTABLE>
  20:	047b0002 	ldrbteq	r0, [fp], #-2
  24:	000001d0 	ldrdeq	r0, [r0], -r0	; <UNPREDICTABLE>
  28:	000001d4 	ldrdeq	r0, [r0], -r4
  2c:	047d0002 	ldrbteq	r0, [sp], #-2
  30:	000001d4 	ldrdeq	r0, [r0], -r4
  34:	000001d8 	ldrdeq	r0, [r0], -r8
  38:	007d0002 	rsbseq	r0, sp, r2
	...
  48:	00000004 	andeq	r0, r0, r4
  4c:	007d0002 	rsbseq	r0, sp, r2
  50:	00000004 	andeq	r0, r0, r4
  54:	00000008 	andeq	r0, r0, r8
  58:	047d0002 	ldrbteq	r0, [sp], #-2
  5c:	00000008 	andeq	r0, r0, r8
  60:	00000030 	andeq	r0, r0, r0, lsr r0
  64:	047b0002 	ldrbteq	r0, [fp], #-2
  68:	00000030 	andeq	r0, r0, r0, lsr r0
  6c:	00000034 	andeq	r0, r0, r4, lsr r0
  70:	047d0002 	ldrbteq	r0, [sp], #-2
  74:	00000034 	andeq	r0, r0, r4, lsr r0
  78:	00000038 	andeq	r0, r0, r8, lsr r0
  7c:	007d0002 	rsbseq	r0, sp, r2
	...
  88:	00000038 	andeq	r0, r0, r8, lsr r0
  8c:	0000003c 	andeq	r0, r0, ip, lsr r0
  90:	007d0002 	rsbseq	r0, sp, r2
  94:	0000003c 	andeq	r0, r0, ip, lsr r0
  98:	00000040 	andeq	r0, r0, r0, asr #32
  9c:	047d0002 	ldrbteq	r0, [sp], #-2
  a0:	00000040 	andeq	r0, r0, r0, asr #32
  a4:	0000006c 	andeq	r0, r0, ip, rrx
  a8:	047b0002 	ldrbteq	r0, [fp], #-2
  ac:	0000006c 	andeq	r0, r0, ip, rrx
  b0:	00000070 	andeq	r0, r0, r0, ror r0
  b4:	047d0002 	ldrbteq	r0, [sp], #-2
  b8:	00000070 	andeq	r0, r0, r0, ror r0
  bc:	00000074 	andeq	r0, r0, r4, ror r0
  c0:	007d0002 	rsbseq	r0, sp, r2
	...
  cc:	00000074 	andeq	r0, r0, r4, ror r0
  d0:	00000078 	andeq	r0, r0, r8, ror r0
  d4:	007d0002 	rsbseq	r0, sp, r2
  d8:	00000078 	andeq	r0, r0, r8, ror r0
  dc:	0000007c 	andeq	r0, r0, ip, ror r0
  e0:	047d0002 	ldrbteq	r0, [sp], #-2
  e4:	0000007c 	andeq	r0, r0, ip, ror r0
  e8:	000000c4 	andeq	r0, r0, r4, asr #1
  ec:	047b0002 	ldrbteq	r0, [fp], #-2
  f0:	000000c4 	andeq	r0, r0, r4, asr #1
  f4:	000000c8 	andeq	r0, r0, r8, asr #1
  f8:	047d0002 	ldrbteq	r0, [sp], #-2
  fc:	000000c8 	andeq	r0, r0, r8, asr #1
 100:	000000cc 	andeq	r0, r0, ip, asr #1
 104:	007d0002 	rsbseq	r0, sp, r2
	...
 110:	000000cc 	andeq	r0, r0, ip, asr #1
 114:	000000d0 	ldrdeq	r0, [r0], -r0	; <UNPREDICTABLE>
 118:	007d0002 	rsbseq	r0, sp, r2
 11c:	000000d0 	ldrdeq	r0, [r0], -r0	; <UNPREDICTABLE>
 120:	000000d4 	ldrdeq	r0, [r0], -r4
 124:	087d0002 	ldmdaeq	sp!, {r1}^
 128:	000000d4 	ldrdeq	r0, [r0], -r4
 12c:	00000100 	andeq	r0, r0, r0, lsl #2
 130:	047b0002 	ldrbteq	r0, [fp], #-2
 134:	00000100 	andeq	r0, r0, r0, lsl #2
 138:	00000104 	andeq	r0, r0, r4, lsl #2
 13c:	087d0002 	ldmdaeq	sp!, {r1}^
	...
 148:	00000104 	andeq	r0, r0, r4, lsl #2
 14c:	00000108 	andeq	r0, r0, r8, lsl #2
 150:	007d0002 	rsbseq	r0, sp, r2
 154:	00000108 	andeq	r0, r0, r8, lsl #2
 158:	0000010c 	andeq	r0, r0, ip, lsl #2
 15c:	047d0002 	ldrbteq	r0, [sp], #-2
 160:	0000010c 	andeq	r0, r0, ip, lsl #2
 164:	00000138 	andeq	r0, r0, r8, lsr r1
 168:	047b0002 	ldrbteq	r0, [fp], #-2
 16c:	00000138 	andeq	r0, r0, r8, lsr r1
 170:	0000013c 	andeq	r0, r0, ip, lsr r1
 174:	047d0002 	ldrbteq	r0, [sp], #-2
 178:	0000013c 	andeq	r0, r0, ip, lsr r1
 17c:	00000140 	andeq	r0, r0, r0, asr #2
 180:	007d0002 	rsbseq	r0, sp, r2
	...
 18c:	00000140 	andeq	r0, r0, r0, asr #2
 190:	00000144 	andeq	r0, r0, r4, asr #2
 194:	007d0002 	rsbseq	r0, sp, r2
 198:	00000144 	andeq	r0, r0, r4, asr #2
 19c:	00000148 	andeq	r0, r0, r8, asr #2
 1a0:	087d0002 	ldmdaeq	sp!, {r1}^
 1a4:	00000148 	andeq	r0, r0, r8, asr #2
 1a8:	00000194 	muleq	r0, r4, r1
 1ac:	047b0002 	ldrbteq	r0, [fp], #-2
 1b0:	00000194 	muleq	r0, r4, r1
 1b4:	00000198 	muleq	r0, r8, r1
 1b8:	087d0002 	ldmdaeq	sp!, {r1}^
	...
 1c4:	00000198 	muleq	r0, r8, r1
 1c8:	0000019c 	muleq	r0, ip, r1
 1cc:	007d0002 	rsbseq	r0, sp, r2
 1d0:	0000019c 	muleq	r0, ip, r1
 1d4:	000001a0 	andeq	r0, r0, r0, lsr #3
 1d8:	087d0002 	ldmdaeq	sp!, {r1}^
 1dc:	000001a0 	andeq	r0, r0, r0, lsr #3
 1e0:	000001d4 	ldrdeq	r0, [r0], -r4
 1e4:	047b0002 	ldrbteq	r0, [fp], #-2
 1e8:	000001d4 	ldrdeq	r0, [r0], -r4
 1ec:	000001d8 	ldrdeq	r0, [r0], -r8
 1f0:	087d0002 	ldmdaeq	sp!, {r1}^
	...
 1fc:	000001d8 	ldrdeq	r0, [r0], -r8
 200:	000001dc 	ldrdeq	r0, [r0], -ip
 204:	007d0002 	rsbseq	r0, sp, r2
 208:	000001dc 	ldrdeq	r0, [r0], -ip
 20c:	000001e0 	andeq	r0, r0, r0, ror #3
 210:	087d0002 	ldmdaeq	sp!, {r1}^
 214:	000001e0 	andeq	r0, r0, r0, ror #3
 218:	00000214 	andeq	r0, r0, r4, lsl r2
 21c:	047b0002 	ldrbteq	r0, [fp], #-2
 220:	00000214 	andeq	r0, r0, r4, lsl r2
 224:	00000218 	andeq	r0, r0, r8, lsl r2
 228:	087d0002 	ldmdaeq	sp!, {r1}^
	...
 234:	00000218 	andeq	r0, r0, r8, lsl r2
 238:	0000021c 	andeq	r0, r0, ip, lsl r2
 23c:	007d0002 	rsbseq	r0, sp, r2
 240:	0000021c 	andeq	r0, r0, ip, lsl r2
 244:	00000220 	andeq	r0, r0, r0, lsr #4
 248:	087d0002 	ldmdaeq	sp!, {r1}^
 24c:	00000220 	andeq	r0, r0, r0, lsr #4
 250:	000002e4 	andeq	r0, r0, r4, ror #5
 254:	047b0002 	ldrbteq	r0, [fp], #-2
 258:	000002e4 	andeq	r0, r0, r4, ror #5
 25c:	000002e8 	andeq	r0, r0, r8, ror #5
 260:	087d0002 	ldmdaeq	sp!, {r1}^
	...
 26c:	000002e8 	andeq	r0, r0, r8, ror #5
 270:	000002ec 	andeq	r0, r0, ip, ror #5
 274:	007d0002 	rsbseq	r0, sp, r2
 278:	000002ec 	andeq	r0, r0, ip, ror #5
 27c:	000002f0 	strdeq	r0, [r0], -r0	; <UNPREDICTABLE>
 280:	087d0002 	ldmdaeq	sp!, {r1}^
 284:	000002f0 	strdeq	r0, [r0], -r0	; <UNPREDICTABLE>
 288:	00000368 	andeq	r0, r0, r8, ror #6
 28c:	047b0002 	ldrbteq	r0, [fp], #-2
 290:	00000368 	andeq	r0, r0, r8, ror #6
 294:	0000036c 	andeq	r0, r0, ip, ror #6
 298:	087d0002 	ldmdaeq	sp!, {r1}^
	...
 2a4:	0000036c 	andeq	r0, r0, ip, ror #6
 2a8:	00000370 	andeq	r0, r0, r0, ror r3
 2ac:	007d0002 	rsbseq	r0, sp, r2
 2b0:	00000370 	andeq	r0, r0, r0, ror r3
 2b4:	00000374 	andeq	r0, r0, r4, ror r3
 2b8:	047d0002 	ldrbteq	r0, [sp], #-2
 2bc:	00000374 	andeq	r0, r0, r4, ror r3
 2c0:	000003b0 			; <UNDEFINED> instruction: 0x000003b0
 2c4:	047b0002 	ldrbteq	r0, [fp], #-2
 2c8:	000003b0 			; <UNDEFINED> instruction: 0x000003b0
 2cc:	000003b4 			; <UNDEFINED> instruction: 0x000003b4
 2d0:	047d0002 	ldrbteq	r0, [sp], #-2
 2d4:	000003b4 			; <UNDEFINED> instruction: 0x000003b4
 2d8:	000003b8 			; <UNDEFINED> instruction: 0x000003b8
 2dc:	007d0002 	rsbseq	r0, sp, r2
	...
 2e8:	000003b8 			; <UNDEFINED> instruction: 0x000003b8
 2ec:	000003bc 			; <UNDEFINED> instruction: 0x000003bc
 2f0:	007d0002 	rsbseq	r0, sp, r2
 2f4:	000003bc 			; <UNDEFINED> instruction: 0x000003bc
 2f8:	000003c0 	andeq	r0, r0, r0, asr #7
 2fc:	047d0002 	ldrbteq	r0, [sp], #-2
 300:	000003c0 	andeq	r0, r0, r0, asr #7
 304:	000004c0 	andeq	r0, r0, r0, asr #9
 308:	047b0002 	ldrbteq	r0, [fp], #-2
 30c:	000004c0 	andeq	r0, r0, r0, asr #9
 310:	000004c4 	andeq	r0, r0, r4, asr #9
 314:	047d0002 	ldrbteq	r0, [sp], #-2
 318:	000004c4 	andeq	r0, r0, r4, asr #9
 31c:	000004c8 	andeq	r0, r0, r8, asr #9
 320:	007d0002 	rsbseq	r0, sp, r2
	...
 32c:	000004c8 	andeq	r0, r0, r8, asr #9
 330:	000004cc 	andeq	r0, r0, ip, asr #9
 334:	007d0002 	rsbseq	r0, sp, r2
 338:	000004cc 	andeq	r0, r0, ip, asr #9
 33c:	000004d0 	ldrdeq	r0, [r0], -r0	; <UNPREDICTABLE>
 340:	047d0002 	ldrbteq	r0, [sp], #-2
 344:	000004d0 	ldrdeq	r0, [r0], -r0	; <UNPREDICTABLE>
 348:	00000510 	andeq	r0, r0, r0, lsl r5
 34c:	047b0002 	ldrbteq	r0, [fp], #-2
 350:	00000510 	andeq	r0, r0, r0, lsl r5
 354:	00000514 	andeq	r0, r0, r4, lsl r5
 358:	047d0002 	ldrbteq	r0, [sp], #-2
 35c:	00000514 	andeq	r0, r0, r4, lsl r5
 360:	00000518 	andeq	r0, r0, r8, lsl r5
 364:	007d0002 	rsbseq	r0, sp, r2
	...
 370:	00000518 	andeq	r0, r0, r8, lsl r5
 374:	0000051c 	andeq	r0, r0, ip, lsl r5
 378:	007d0002 	rsbseq	r0, sp, r2
 37c:	0000051c 	andeq	r0, r0, ip, lsl r5
 380:	00000520 	andeq	r0, r0, r0, lsr #10
 384:	087d0002 	ldmdaeq	sp!, {r1}^
 388:	00000520 	andeq	r0, r0, r0, lsr #10
 38c:	00000574 	andeq	r0, r0, r4, ror r5
 390:	047b0002 	ldrbteq	r0, [fp], #-2
 394:	00000574 	andeq	r0, r0, r4, ror r5
 398:	00000578 	andeq	r0, r0, r8, ror r5
 39c:	087d0002 	ldmdaeq	sp!, {r1}^
	...
 3a8:	00000578 	andeq	r0, r0, r8, ror r5
 3ac:	0000057c 	andeq	r0, r0, ip, ror r5
 3b0:	007d0002 	rsbseq	r0, sp, r2
 3b4:	0000057c 	andeq	r0, r0, ip, ror r5
 3b8:	00000580 	andeq	r0, r0, r0, lsl #11
 3bc:	087d0002 	ldmdaeq	sp!, {r1}^
 3c0:	00000580 	andeq	r0, r0, r0, lsl #11
 3c4:	000005ec 	andeq	r0, r0, ip, ror #11
 3c8:	047b0002 	ldrbteq	r0, [fp], #-2
 3cc:	000005ec 	andeq	r0, r0, ip, ror #11
 3d0:	000005f0 	strdeq	r0, [r0], -r0	; <UNPREDICTABLE>
 3d4:	087d0002 	ldmdaeq	sp!, {r1}^
	...
 3e0:	000005f0 	strdeq	r0, [r0], -r0	; <UNPREDICTABLE>
 3e4:	000005f4 	strdeq	r0, [r0], -r4
 3e8:	007d0002 	rsbseq	r0, sp, r2
 3ec:	000005f4 	strdeq	r0, [r0], -r4
 3f0:	000005f8 	strdeq	r0, [r0], -r8
 3f4:	087d0002 	ldmdaeq	sp!, {r1}^
 3f8:	000005f8 	strdeq	r0, [r0], -r8
 3fc:	00000634 	andeq	r0, r0, r4, lsr r6
 400:	047b0002 	ldrbteq	r0, [fp], #-2
 404:	00000634 	andeq	r0, r0, r4, lsr r6
 408:	00000638 	andeq	r0, r0, r8, lsr r6
 40c:	087d0002 	ldmdaeq	sp!, {r1}^
	...
 418:	00000638 	andeq	r0, r0, r8, lsr r6
 41c:	0000063c 	andeq	r0, r0, ip, lsr r6
 420:	007d0002 	rsbseq	r0, sp, r2
 424:	0000063c 	andeq	r0, r0, ip, lsr r6
 428:	00000640 	andeq	r0, r0, r0, asr #12
 42c:	087d0002 	ldmdaeq	sp!, {r1}^
 430:	00000640 	andeq	r0, r0, r0, asr #12
 434:	000006c4 	andeq	r0, r0, r4, asr #13
 438:	047b0002 	ldrbteq	r0, [fp], #-2
 43c:	000006c4 	andeq	r0, r0, r4, asr #13
 440:	000006c8 	andeq	r0, r0, r8, asr #13
 444:	087d0002 	ldmdaeq	sp!, {r1}^
	...
 450:	000006c8 	andeq	r0, r0, r8, asr #13
 454:	000006cc 	andeq	r0, r0, ip, asr #13
 458:	007d0002 	rsbseq	r0, sp, r2
 45c:	000006cc 	andeq	r0, r0, ip, asr #13
 460:	000006d0 	ldrdeq	r0, [r0], -r0	; <UNPREDICTABLE>
 464:	087d0002 	ldmdaeq	sp!, {r1}^
 468:	000006d0 	ldrdeq	r0, [r0], -r0	; <UNPREDICTABLE>
 46c:	00000808 	andeq	r0, r0, r8, lsl #16
 470:	047b0002 	ldrbteq	r0, [fp], #-2
 474:	00000808 	andeq	r0, r0, r8, lsl #16
 478:	0000080c 	andeq	r0, r0, ip, lsl #16
 47c:	087d0002 	ldmdaeq	sp!, {r1}^
	...
 488:	0000080c 	andeq	r0, r0, ip, lsl #16
 48c:	00000810 	andeq	r0, r0, r0, lsl r8
 490:	007d0002 	rsbseq	r0, sp, r2
 494:	00000810 	andeq	r0, r0, r0, lsl r8
 498:	00000814 	andeq	r0, r0, r4, lsl r8
 49c:	087d0002 	ldmdaeq	sp!, {r1}^
 4a0:	00000814 	andeq	r0, r0, r4, lsl r8
 4a4:	00000848 	andeq	r0, r0, r8, asr #16
 4a8:	047b0002 	ldrbteq	r0, [fp], #-2
 4ac:	00000848 	andeq	r0, r0, r8, asr #16
 4b0:	0000084c 	andeq	r0, r0, ip, asr #16
 4b4:	087d0002 	ldmdaeq	sp!, {r1}^
	...
 4c0:	0000084c 	andeq	r0, r0, ip, asr #16
 4c4:	00000850 	andeq	r0, r0, r0, asr r8
 4c8:	007d0002 	rsbseq	r0, sp, r2
 4cc:	00000850 	andeq	r0, r0, r0, asr r8
 4d0:	00000854 	andeq	r0, r0, r4, asr r8
 4d4:	087d0002 	ldmdaeq	sp!, {r1}^
 4d8:	00000854 	andeq	r0, r0, r4, asr r8
 4dc:	000008d0 	ldrdeq	r0, [r0], -r0	; <UNPREDICTABLE>
 4e0:	047b0002 	ldrbteq	r0, [fp], #-2
	...
 4ec:	000008d0 	ldrdeq	r0, [r0], -r0	; <UNPREDICTABLE>
 4f0:	000008d4 	ldrdeq	r0, [r0], -r4
 4f4:	007d0002 	rsbseq	r0, sp, r2
 4f8:	000008d4 	ldrdeq	r0, [r0], -r4
 4fc:	000008d8 	ldrdeq	r0, [r0], -r8
 500:	087d0002 	ldmdaeq	sp!, {r1}^
 504:	000008d8 	ldrdeq	r0, [r0], -r8
 508:	000008fc 	strdeq	r0, [r0], -ip
 50c:	047b0002 	ldrbteq	r0, [fp], #-2
	...
 51c:	00000004 	andeq	r0, r0, r4
 520:	007d0002 	rsbseq	r0, sp, r2
 524:	00000004 	andeq	r0, r0, r4
 528:	00000008 	andeq	r0, r0, r8
 52c:	047d0002 	ldrbteq	r0, [sp], #-2
 530:	00000008 	andeq	r0, r0, r8
 534:	00000030 	andeq	r0, r0, r0, lsr r0
 538:	047b0002 	ldrbteq	r0, [fp], #-2
	...
 544:	00000030 	andeq	r0, r0, r0, lsr r0
 548:	00000034 	andeq	r0, r0, r4, lsr r0
 54c:	007d0002 	rsbseq	r0, sp, r2
 550:	00000034 	andeq	r0, r0, r4, lsr r0
 554:	00000038 	andeq	r0, r0, r8, lsr r0
 558:	087d0002 	ldmdaeq	sp!, {r1}^
 55c:	00000038 	andeq	r0, r0, r8, lsr r0
 560:	00000064 	andeq	r0, r0, r4, rrx
 564:	047b0002 	ldrbteq	r0, [fp], #-2
	...
 574:	00000004 	andeq	r0, r0, r4
 578:	007d0002 	rsbseq	r0, sp, r2
 57c:	00000004 	andeq	r0, r0, r4
 580:	00000008 	andeq	r0, r0, r8
 584:	087d0002 	ldmdaeq	sp!, {r1}^
 588:	00000008 	andeq	r0, r0, r8
 58c:	0000007c 	andeq	r0, r0, ip, ror r0
 590:	047b0002 	ldrbteq	r0, [fp], #-2
 594:	0000007c 	andeq	r0, r0, ip, ror r0
 598:	00000080 	andeq	r0, r0, r0, lsl #1
 59c:	087d0002 	ldmdaeq	sp!, {r1}^
	...
 5ac:	00000004 	andeq	r0, r0, r4
 5b0:	007d0002 	rsbseq	r0, sp, r2
 5b4:	00000004 	andeq	r0, r0, r4
 5b8:	00000008 	andeq	r0, r0, r8
 5bc:	047d0002 	ldrbteq	r0, [sp], #-2
 5c0:	00000008 	andeq	r0, r0, r8
 5c4:	00000030 	andeq	r0, r0, r0, lsr r0
 5c8:	047b0002 	ldrbteq	r0, [fp], #-2
 5cc:	00000030 	andeq	r0, r0, r0, lsr r0
 5d0:	00000034 	andeq	r0, r0, r4, lsr r0
 5d4:	047d0002 	ldrbteq	r0, [sp], #-2
 5d8:	00000034 	andeq	r0, r0, r4, lsr r0
 5dc:	00000038 	andeq	r0, r0, r8, lsr r0
 5e0:	007d0002 	rsbseq	r0, sp, r2
	...
 5ec:	00000038 	andeq	r0, r0, r8, lsr r0
 5f0:	0000003c 	andeq	r0, r0, ip, lsr r0
 5f4:	007d0002 	rsbseq	r0, sp, r2
 5f8:	0000003c 	andeq	r0, r0, ip, lsr r0
 5fc:	00000040 	andeq	r0, r0, r0, asr #32
 600:	047d0002 	ldrbteq	r0, [sp], #-2
 604:	00000040 	andeq	r0, r0, r0, asr #32
 608:	0000006c 	andeq	r0, r0, ip, rrx
 60c:	047b0002 	ldrbteq	r0, [fp], #-2
 610:	0000006c 	andeq	r0, r0, ip, rrx
 614:	00000070 	andeq	r0, r0, r0, ror r0
 618:	047d0002 	ldrbteq	r0, [sp], #-2
 61c:	00000070 	andeq	r0, r0, r0, ror r0
 620:	00000074 	andeq	r0, r0, r4, ror r0
 624:	007d0002 	rsbseq	r0, sp, r2
	...
 630:	00000074 	andeq	r0, r0, r4, ror r0
 634:	00000078 	andeq	r0, r0, r8, ror r0
 638:	007d0002 	rsbseq	r0, sp, r2
 63c:	00000078 	andeq	r0, r0, r8, ror r0
 640:	0000007c 	andeq	r0, r0, ip, ror r0
 644:	047d0002 	ldrbteq	r0, [sp], #-2
 648:	0000007c 	andeq	r0, r0, ip, ror r0
 64c:	000000c4 	andeq	r0, r0, r4, asr #1
 650:	047b0002 	ldrbteq	r0, [fp], #-2
 654:	000000c4 	andeq	r0, r0, r4, asr #1
 658:	000000c8 	andeq	r0, r0, r8, asr #1
 65c:	047d0002 	ldrbteq	r0, [sp], #-2
 660:	000000c8 	andeq	r0, r0, r8, asr #1
 664:	000000cc 	andeq	r0, r0, ip, asr #1
 668:	007d0002 	rsbseq	r0, sp, r2
	...
 674:	000000cc 	andeq	r0, r0, ip, asr #1
 678:	000000d0 	ldrdeq	r0, [r0], -r0	; <UNPREDICTABLE>
 67c:	007d0002 	rsbseq	r0, sp, r2
 680:	000000d0 	ldrdeq	r0, [r0], -r0	; <UNPREDICTABLE>
 684:	000000d4 	ldrdeq	r0, [r0], -r4
 688:	087d0002 	ldmdaeq	sp!, {r1}^
 68c:	000000d4 	ldrdeq	r0, [r0], -r4
 690:	00000100 	andeq	r0, r0, r0, lsl #2
 694:	047b0002 	ldrbteq	r0, [fp], #-2
 698:	00000100 	andeq	r0, r0, r0, lsl #2
 69c:	00000104 	andeq	r0, r0, r4, lsl #2
 6a0:	087d0002 	ldmdaeq	sp!, {r1}^
	...
 6ac:	00000104 	andeq	r0, r0, r4, lsl #2
 6b0:	00000108 	andeq	r0, r0, r8, lsl #2
 6b4:	007d0002 	rsbseq	r0, sp, r2
 6b8:	00000108 	andeq	r0, r0, r8, lsl #2
 6bc:	0000010c 	andeq	r0, r0, ip, lsl #2
 6c0:	047d0002 	ldrbteq	r0, [sp], #-2
 6c4:	0000010c 	andeq	r0, r0, ip, lsl #2
 6c8:	00000138 	andeq	r0, r0, r8, lsr r1
 6cc:	047b0002 	ldrbteq	r0, [fp], #-2
 6d0:	00000138 	andeq	r0, r0, r8, lsr r1
 6d4:	0000013c 	andeq	r0, r0, ip, lsr r1
 6d8:	047d0002 	ldrbteq	r0, [sp], #-2
 6dc:	0000013c 	andeq	r0, r0, ip, lsr r1
 6e0:	00000140 	andeq	r0, r0, r0, asr #2
 6e4:	007d0002 	rsbseq	r0, sp, r2
	...
 6f0:	00000140 	andeq	r0, r0, r0, asr #2
 6f4:	00000144 	andeq	r0, r0, r4, asr #2
 6f8:	007d0002 	rsbseq	r0, sp, r2
 6fc:	00000144 	andeq	r0, r0, r4, asr #2
 700:	00000148 	andeq	r0, r0, r8, asr #2
 704:	087d0002 	ldmdaeq	sp!, {r1}^
 708:	00000148 	andeq	r0, r0, r8, asr #2
 70c:	00000194 	muleq	r0, r4, r1
 710:	047b0002 	ldrbteq	r0, [fp], #-2
 714:	00000194 	muleq	r0, r4, r1
 718:	00000198 	muleq	r0, r8, r1
 71c:	087d0002 	ldmdaeq	sp!, {r1}^
	...
 728:	00000198 	muleq	r0, r8, r1
 72c:	0000019c 	muleq	r0, ip, r1
 730:	007d0002 	rsbseq	r0, sp, r2
 734:	0000019c 	muleq	r0, ip, r1
 738:	000001a0 	andeq	r0, r0, r0, lsr #3
 73c:	087d0002 	ldmdaeq	sp!, {r1}^
 740:	000001a0 	andeq	r0, r0, r0, lsr #3
 744:	000001d4 	ldrdeq	r0, [r0], -r4
 748:	047b0002 	ldrbteq	r0, [fp], #-2
 74c:	000001d4 	ldrdeq	r0, [r0], -r4
 750:	000001d8 	ldrdeq	r0, [r0], -r8
 754:	087d0002 	ldmdaeq	sp!, {r1}^
	...
 760:	000001d8 	ldrdeq	r0, [r0], -r8
 764:	000001dc 	ldrdeq	r0, [r0], -ip
 768:	007d0002 	rsbseq	r0, sp, r2
 76c:	000001dc 	ldrdeq	r0, [r0], -ip
 770:	000001e0 	andeq	r0, r0, r0, ror #3
 774:	087d0002 	ldmdaeq	sp!, {r1}^
 778:	000001e0 	andeq	r0, r0, r0, ror #3
 77c:	00000214 	andeq	r0, r0, r4, lsl r2
 780:	047b0002 	ldrbteq	r0, [fp], #-2
 784:	00000214 	andeq	r0, r0, r4, lsl r2
 788:	00000218 	andeq	r0, r0, r8, lsl r2
 78c:	087d0002 	ldmdaeq	sp!, {r1}^
	...
 798:	00000218 	andeq	r0, r0, r8, lsl r2
 79c:	0000021c 	andeq	r0, r0, ip, lsl r2
 7a0:	007d0002 	rsbseq	r0, sp, r2
 7a4:	0000021c 	andeq	r0, r0, ip, lsl r2
 7a8:	00000220 	andeq	r0, r0, r0, lsr #4
 7ac:	087d0002 	ldmdaeq	sp!, {r1}^
 7b0:	00000220 	andeq	r0, r0, r0, lsr #4
 7b4:	00000270 	andeq	r0, r0, r0, ror r2
 7b8:	047b0002 	ldrbteq	r0, [fp], #-2
 7bc:	00000270 	andeq	r0, r0, r0, ror r2
 7c0:	00000274 	andeq	r0, r0, r4, ror r2
 7c4:	087d0002 	ldmdaeq	sp!, {r1}^
	...
 7d0:	00000274 	andeq	r0, r0, r4, ror r2
 7d4:	00000278 	andeq	r0, r0, r8, ror r2
 7d8:	007d0002 	rsbseq	r0, sp, r2
 7dc:	00000278 	andeq	r0, r0, r8, ror r2
 7e0:	0000027c 	andeq	r0, r0, ip, ror r2
 7e4:	087d0002 	ldmdaeq	sp!, {r1}^
 7e8:	0000027c 	andeq	r0, r0, ip, ror r2
 7ec:	00000364 	andeq	r0, r0, r4, ror #6
 7f0:	047b0002 	ldrbteq	r0, [fp], #-2
 7f4:	00000364 	andeq	r0, r0, r4, ror #6
 7f8:	00000368 	andeq	r0, r0, r8, ror #6
 7fc:	087d0002 	ldmdaeq	sp!, {r1}^
	...
 808:	00000368 	andeq	r0, r0, r8, ror #6
 80c:	0000036c 	andeq	r0, r0, ip, ror #6
 810:	007d0002 	rsbseq	r0, sp, r2
 814:	0000036c 	andeq	r0, r0, ip, ror #6
 818:	00000370 	andeq	r0, r0, r0, ror r3
 81c:	087d0002 	ldmdaeq	sp!, {r1}^
 820:	00000370 	andeq	r0, r0, r0, ror r3
 824:	0000047c 	andeq	r0, r0, ip, ror r4
 828:	047b0002 	ldrbteq	r0, [fp], #-2
 82c:	0000047c 	andeq	r0, r0, ip, ror r4
 830:	00000480 	andeq	r0, r0, r0, lsl #9
 834:	087d0002 	ldmdaeq	sp!, {r1}^
	...
 844:	00000004 	andeq	r0, r0, r4
 848:	007d0002 	rsbseq	r0, sp, r2
 84c:	00000004 	andeq	r0, r0, r4
 850:	00000008 	andeq	r0, r0, r8
 854:	087d0002 	ldmdaeq	sp!, {r1}^
 858:	00000008 	andeq	r0, r0, r8
 85c:	0000004c 	andeq	r0, r0, ip, asr #32
 860:	047b0002 	ldrbteq	r0, [fp], #-2
	...
 86c:	0000004c 	andeq	r0, r0, ip, asr #32
 870:	00000050 	andeq	r0, r0, r0, asr r0
 874:	007d0002 	rsbseq	r0, sp, r2
 878:	00000050 	andeq	r0, r0, r0, asr r0
 87c:	00000054 	andeq	r0, r0, r4, asr r0
 880:	087d0002 	ldmdaeq	sp!, {r1}^
 884:	00000054 	andeq	r0, r0, r4, asr r0
 888:	00000098 	muleq	r0, r8, r0
 88c:	047b0002 	ldrbteq	r0, [fp], #-2
	...
 898:	00000098 	muleq	r0, r8, r0
 89c:	0000009c 	muleq	r0, ip, r0
 8a0:	007d0002 	rsbseq	r0, sp, r2
 8a4:	0000009c 	muleq	r0, ip, r0
 8a8:	000000a0 	andeq	r0, r0, r0, lsr #1
 8ac:	087d0002 	ldmdaeq	sp!, {r1}^
 8b0:	000000a0 	andeq	r0, r0, r0, lsr #1
 8b4:	00000110 	andeq	r0, r0, r0, lsl r1
 8b8:	047b0002 	ldrbteq	r0, [fp], #-2
	...

Disassembly of section .debug_str:

00000000 <.debug_str>:
   0:	6b736174 	blvs	1cd85d8 <RT_IRQ_STACK_PGSZ+0x1cd7dd8>
   4:	6f682f00 	svcvs	0x00682f00
   8:	792f656d 	stmdbvc	pc!, {r0, r2, r3, r5, r6, r8, sl, sp, lr}	; <UNPREDICTABLE>
   c:	61676e61 	cmnvs	r7, r1, ror #28
  10:	772f676e 	strvc	r6, [pc, -lr, ror #14]!
  14:	2f6b726f 	svccs	0x006b726f
  18:	68746967 	ldmdavs	r4!, {r0, r1, r2, r5, r6, r8, fp, sp, lr}^
  1c:	705f6275 	subsvc	r6, pc, r5, ror r2	; <UNPREDICTABLE>
  20:	2f6a6f72 	svccs	0x006a6f72
  24:	534f6779 	movtpl	r6, #63353	; 0xf779
  28:	6372732f 	cmnvs	r2, #-1140850688	; 0xbc000000
  2c:	616f622f 	cmnvs	pc, pc, lsr #4
  30:	712f6472 			; <UNDEFINED> instruction: 0x712f6472
  34:	2d756d65 	ldclcs	13, cr6, [r5, #-404]!	; 0xfffffe6c
  38:	70786576 	rsbsvc	r6, r8, r6, ror r5
  3c:	73736572 	cmnvc	r3, #478150656	; 0x1c800000
  40:	0039612d 	eorseq	r6, r9, sp, lsr #2
  44:	69736e75 	ldmdbvs	r3!, {r0, r2, r4, r5, r6, r9, sl, fp, sp, lr}^
  48:	64656e67 	strbtvs	r6, [r5], #-3687	; 0xfffff199
  4c:	61686320 	cmnvs	r8, r0, lsr #6
  50:	6f6c0072 	svcvs	0x006c0072
  54:	7520676e 	strvc	r6, [r0, #-1902]!	; 0xfffff892
  58:	6769736e 	strbvs	r7, [r9, -lr, ror #6]!
  5c:	2064656e 	rsbcs	r6, r4, lr, ror #10
  60:	00746e69 	rsbseq	r6, r4, r9, ror #28
  64:	726f6873 	rsbvc	r6, pc, #7536640	; 0x730000
  68:	6e752074 	mrcvs	0, 3, r2, cr5, cr4, {3}
  6c:	6e676973 	mcrvs	9, 3, r6, cr7, cr3, {3}
  70:	69206465 	stmdbvs	r0!, {r0, r2, r5, r6, sl, sp, lr}
  74:	4700746e 	strmi	r7, [r0, -lr, ror #8]
  78:	4320554e 			; <UNDEFINED> instruction: 0x4320554e
  7c:	35203131 	strcc	r3, [r0, #-305]!	; 0xfffffecf
  80:	312e342e 			; <UNDEFINED> instruction: 0x312e342e
  84:	31303220 	teqcc	r0, r0, lsr #4
  88:	30363036 	eorscc	r3, r6, r6, lsr r0
  8c:	72282039 	eorvc	r2, r8, #57	; 0x39
  90:	61656c65 	cmnvs	r5, r5, ror #24
  94:	20296573 	eorcs	r6, r9, r3, ror r5
  98:	4d52415b 	ldfmie	f4, [r2, #-364]	; 0xfffffe94
  9c:	626d652f 	rsbvs	r6, sp, #197132288	; 0xbc00000
  a0:	65646465 	strbvs	r6, [r4, #-1125]!	; 0xfffffb9b
  a4:	2d352d64 	ldccs	13, cr2, [r5, #-400]!	; 0xfffffe70
  a8:	6e617262 	cdpvs	2, 6, cr7, cr1, cr2, {3}
  ac:	72206863 	eorvc	r6, r0, #6488064	; 0x630000
  b0:	73697665 	cmnvc	r9, #105906176	; 0x6500000
  b4:	206e6f69 	rsbcs	r6, lr, r9, ror #30
  b8:	37373332 			; <UNDEFINED> instruction: 0x37373332
  bc:	205d3531 	subscs	r3, sp, r1, lsr r5
  c0:	72616d2d 	rsbvc	r6, r1, #2880	; 0xb40
  c4:	613d6863 	teqvs	sp, r3, ror #16
  c8:	37766d72 			; <UNDEFINED> instruction: 0x37766d72
  cc:	2d20612d 	stfcss	f6, [r0, #-180]!	; 0xffffff4c
  d0:	6d72616d 	ldfvse	f6, [r2, #-436]!	; 0xfffffe4c
  d4:	666d2d20 	strbtvs	r2, [sp], -r0, lsr #26
  d8:	74616f6c 	strbtvc	r6, [r1], #-3948	; 0xfffff094
  dc:	6962612d 	stmdbvs	r2!, {r0, r2, r3, r5, r8, sp, lr}^
  e0:	666f733d 			; <UNDEFINED> instruction: 0x666f733d
  e4:	672d2074 			; <UNDEFINED> instruction: 0x672d2074
  e8:	20672d20 	rsbcs	r2, r7, r0, lsr #26
  ec:	7764672d 	strbvc	r6, [r4, -sp, lsr #14]!
  f0:	2d667261 	sfmcs	f7, 2, [r6, #-388]!	; 0xfffffe7c
  f4:	4f2d2032 	svcmi	0x002d2032
  f8:	6e690030 	mcrvs	0, 3, r0, cr9, cr0, {1}
  fc:	5f363174 	svcpl	0x00363174
 100:	69730074 	ldmdbvs	r3!, {r2, r4, r5, r6}^
 104:	7974657a 	ldmdbvc	r4!, {r1, r3, r4, r5, r6, r8, sl, sp, lr}^
 108:	73006570 	movwvc	r6, #1392	; 0x570
 10c:	74726f68 	ldrbtvc	r6, [r2], #-3944	; 0xfffff098
 110:	746e6920 	strbtvc	r6, [lr], #-2336	; 0xfffff6e0
 114:	6e697500 	cdpvs	5, 6, cr7, cr9, cr0, {0}
 118:	5f323374 	svcpl	0x00323374
 11c:	2e2e0074 	mcrcs	0, 1, r0, cr14, cr4, {3}
 120:	2f2e2e2f 	svccs	0x002e2e2f
 124:	68637261 	stmdavs	r3!, {r0, r5, r6, r9, ip, sp, lr}^
 128:	6d72612f 	ldfvse	f6, [r2, #-188]!	; 0xffffff44
 12c:	6d72612f 	ldfvse	f6, [r2, #-188]!	; 0xffffff44
 130:	612d3776 			; <UNDEFINED> instruction: 0x612d3776
 134:	6174732f 	cmnvs	r4, pc, lsr #6
 138:	632e6b63 			; <UNDEFINED> instruction: 0x632e6b63
 13c:	6f747000 	svcvs	0x00747000
 140:	67790073 			; <UNDEFINED> instruction: 0x67790073
 144:	745f736f 	ldrbvc	r7, [pc], #-879	; 14c <I_Bit+0xcc>
 148:	5f6b7361 	svcpl	0x006b7361
 14c:	63617473 	cmnvs	r1, #1929379840	; 0x73000000
 150:	6e695f6b 	cdpvs	15, 6, cr5, cr9, cr11, {3}
 154:	70007469 	andvc	r7, r0, r9, ror #8
 158:	6772615f 			; <UNDEFINED> instruction: 0x6772615f
 15c:	6f6c6300 	svcvs	0x006c6300
 160:	72006573 	andvc	r6, r0, #482344960	; 0x1cc00000
 164:	6269735f 	rsbvs	r7, r9, #2080374785	; 0x7c000001
 168:	676e696c 	strbvs	r6, [lr, -ip, ror #18]!
 16c:	61657200 	cmnvs	r5, r0, lsl #4
 170:	72696464 	rsbvc	r6, r9, #100, 8	; 0x64000000
 174:	6f677900 	svcvs	0x00677900
 178:	72705f73 	rsbsvc	r5, r0, #460	; 0x1cc
 17c:	685f6f69 	ldmdavs	pc, {r0, r3, r5, r6, r8, r9, sl, fp, sp, lr}^	; <UNPREDICTABLE>
 180:	725f6769 	subsvc	r6, pc, #27525120	; 0x1a40000
 184:	79646165 	stmdbvc	r4!, {r0, r2, r5, r6, r8, sp, lr}^
 188:	62637400 	rsbvs	r7, r3, #0, 8
 18c:	6261745f 	rsbvs	r7, r1, #1593835520	; 0x5f000000
 190:	7700656c 	strvc	r6, [r0, -ip, ror #10]
 194:	65746972 	ldrbvs	r6, [r4, #-2418]!	; 0xfffff68e
 198:	61747300 	cmnvs	r4, r0, lsl #6
 19c:	705f6b63 	subsvc	r6, pc, r3, ror #22
 1a0:	6c007274 	sfmvs	f7, 4, [r0], {116}	; 0x74
 1a4:	5f747369 	svcpl	0x00747369
 1a8:	64616568 	strbtvs	r6, [r1], #-1384	; 0xfffffa98
 1ac:	5f6c6600 	svcpl	0x006c6600
 1b0:	656c6966 	strbvs	r6, [ip, #-2406]!	; 0xfffff69a
 1b4:	74700073 	ldrbtvc	r0, [r0], #-115	; 0xffffff8d
 1b8:	77006263 	strvc	r6, [r0, -r3, ror #4]
 1bc:	5f746961 	svcpl	0x00746961
 1c0:	74617473 	strbtvc	r7, [r1], #-1139	; 0xfffffb8d
 1c4:	79007375 	stmdbvc	r0, {r0, r2, r4, r5, r6, r8, r9, ip, sp, lr}
 1c8:	5f736f67 	svcpl	0x00736f67
 1cc:	5f626374 	svcpl	0x00626374
 1d0:	7473696c 	ldrbtvc	r6, [r3], #-2412	; 0xfffff694
 1d4:	696e695f 	stmdbvs	lr!, {r0, r1, r2, r3, r4, r6, r8, fp, sp, lr}^
 1d8:	6e690074 	mcrvs	0, 3, r0, cr9, cr4, {3}
 1dc:	5f65646f 	svcpl	0x0065646f
 1e0:	5f73706f 	svcpl	0x0073706f
 1e4:	67790075 			; <UNDEFINED> instruction: 0x67790075
 1e8:	745f736f 	ldrbvc	r7, [pc], #-879	; 1f0 <I_Bit+0x170>
 1ec:	72656d69 	rsbvc	r6, r5, #6720	; 0x1a40
 1f0:	6863735f 	stmdavs	r3!, {r0, r1, r2, r3, r4, r6, r8, r9, ip, sp, lr}^
 1f4:	65720065 	ldrbvs	r0, [r2, #-101]!	; 0xffffff9b
 1f8:	646e6977 	strbtvs	r6, [lr], #-2423	; 0xfffff689
 1fc:	00726964 	rsbseq	r6, r2, r4, ror #18
 200:	656c6966 	strbvs	r6, [ip, #-2406]!	; 0xfffff69a
 204:	6f677900 	svcvs	0x00677900
 208:	63745f73 	cmnvs	r4, #460	; 0x1cc
 20c:	69685f62 	stmdbvs	r8!, {r1, r5, r6, r8, r9, sl, fp, ip, lr}^
 210:	725f6867 	subsvc	r6, pc, #6750208	; 0x670000
 214:	79646165 	stmdbvc	r4!, {r0, r2, r5, r6, r8, sp, lr}^
 218:	6e5f6900 	cdpvs	9, 5, cr6, cr15, cr0, {0}
 21c:	00656d61 	rsbeq	r6, r5, r1, ror #26
 220:	68635f6c 	stmdavs	r3!, {r2, r3, r5, r6, r8, r9, sl, fp, ip, lr}^
 224:	00646c69 	rsbeq	r6, r4, r9, ror #24
 228:	54494e49 	strbpl	r4, [r9], #-3657	; 0xfffff1b7
 22c:	53494c5f 	movtpl	r4, #40031	; 0x9c5f
 230:	45485f54 	strbmi	r5, [r8, #-3924]	; 0xfffff0ac
 234:	75004441 	strvc	r4, [r0, #-1089]	; 0xfffffbbf
 238:	38746e69 	ldmdacc	r4!, {r0, r3, r5, r6, r9, sl, fp, sp, lr}^
 23c:	6600745f 			; <UNDEFINED> instruction: 0x6600745f
 240:	69645f73 	stmdbvs	r4!, {r0, r1, r4, r5, r6, r8, r9, sl, fp, ip, lr}^
 244:	746e6572 	strbtvc	r6, [lr], #-1394	; 0xfffffa8e
 248:	6200735f 	andvs	r7, r0, #2080374785	; 0x7c000001
 24c:	616d7469 	cmnvs	sp, r9, ror #8
 250:	5f5f0070 	svcpl	0x005f0070
 254:	7473696c 	ldrbtvc	r6, [r3], #-2412	; 0xfffff694
 258:	6464615f 	strbtvs	r6, [r4], #-351	; 0xfffffea1
 25c:	6f677900 	svcvs	0x00677900
 260:	63745f73 	cmnvs	r4, #460	; 0x1cc
 264:	72665f62 	rsbvc	r5, r6, #392	; 0x188
 268:	6c5f6565 	cfldr64vs	mvdx6, [pc], {101}	; 0x65
 26c:	00747369 	rsbseq	r7, r4, r9, ror #6
 270:	736f6779 	cmnvc	pc, #31719424	; 0x1e40000
 274:	7361745f 	cmnvc	r1, #1593835520	; 0x5f000000
 278:	65725f6b 	ldrbvs	r5, [r2, #-3947]!	; 0xfffff095
 27c:	5f796461 	svcpl	0x00796461
 280:	656c6564 	strbvs	r6, [ip, #-1380]!	; 0xfffffa9c
 284:	69006574 	stmdbvs	r0, {r2, r4, r5, r6, r8, sl, sp, lr}
 288:	706f6d5f 	rsbvc	r6, pc, pc, asr sp	; <UNPREDICTABLE>
 28c:	706f0073 	rsbvc	r0, pc, r3, ror r0	; <UNPREDICTABLE>
 290:	69646e65 	stmdbvs	r4!, {r0, r2, r5, r6, r9, sl, fp, sp, lr}^
 294:	5f690072 	svcpl	0x00690072
 298:	67616c66 	strbvs	r6, [r1, -r6, ror #24]!
 29c:	65720073 	ldrbvs	r0, [r2, #-115]!	; 0xffffff8d
 2a0:	79006461 	stmdbvc	r0, {r0, r5, r6, sl, sp, lr}
 2a4:	5f736f67 	svcpl	0x00736f67
 2a8:	5f626374 	svcpl	0x00626374
 2ac:	72727563 	rsbsvc	r7, r2, #415236096	; 0x18c00000
 2b0:	00746e65 	rsbseq	r6, r4, r5, ror #28
 2b4:	72705f69 	rsbsvc	r5, r0, #420	; 0x1a4
 2b8:	74617669 	strbtvc	r7, [r1], #-1641	; 0xfffff997
 2bc:	696c0065 	stmdbvs	ip!, {r0, r2, r5, r6}^
 2c0:	655f7473 	ldrbvs	r7, [pc, #-1139]	; fffffe55 <__bss_end+0x9fffcdad>
 2c4:	7974706d 	ldmdbvc	r4!, {r0, r2, r3, r5, r6, ip, sp, lr}^
 2c8:	62637400 	rsbvs	r7, r3, #0, 8
 2cc:	5f00735f 	svcpl	0x0000735f
 2d0:	73696c5f 	cmnvc	r9, #24320	; 0x5f00
 2d4:	65645f74 	strbvs	r5, [r4, #-3956]!	; 0xfffff08c
 2d8:	696c006c 	stmdbvs	ip!, {r2, r3, r5, r6}^
 2dc:	675f7473 			; <UNDEFINED> instruction: 0x675f7473
 2e0:	665f7465 	ldrbvs	r7, [pc], -r5, ror #8
 2e4:	74737269 	ldrbtvc	r7, [r3], #-617	; 0xfffffd97
 2e8:	66666f00 	strbtvs	r6, [r6], -r0, lsl #30
 2ec:	6d00745f 	cfstrsvs	mvf7, [r0, #-380]	; 0xfffffe84
 2f0:	746e756f 	strbtvc	r7, [lr], #-1391	; 0xfffffa91
 2f4:	6f5f7470 	svcvs	0x005f7470
 2f8:	61726570 	cmnvs	r2, r0, ror r5
 2fc:	6e6f6974 	mcrvs	9, 3, r6, cr15, cr4, {3}
 300:	67740073 			; <UNDEFINED> instruction: 0x67740073
 304:	6c69665f 	stclvs	6, cr6, [r9], #-380	; 0xfffffe84
 308:	73696c65 	cmnvc	r9, #25856	; 0x6500
 30c:	67790074 			; <UNDEFINED> instruction: 0x67790074
 310:	735f736f 	cmpvc	pc, #-1140850687	; 0xbc000001
 314:	74726174 	ldrbtvc	r6, [r2], #-372	; 0xfffffe8c
 318:	6f5f6600 	svcvs	0x005f6600
 31c:	67616c66 	strbvs	r6, [r1, -r6, ror #24]!
 320:	67790073 			; <UNDEFINED> instruction: 0x67790073
 324:	745f736f 	ldrbvc	r7, [pc], #-879	; 32c <I_Bit+0x2ac>
 328:	5f6b7361 	svcpl	0x006b7361
 32c:	68676968 	stmdavs	r7!, {r3, r5, r6, r8, fp, sp, lr}^
 330:	6165725f 	cmnvs	r5, pc, asr r2
 334:	675f7964 	ldrbvs	r7, [pc, -r4, ror #18]
 338:	74007465 	strvc	r7, [r0], #-1125	; 0xfffffb9b
 33c:	736b6369 	cmnvc	fp, #-1543503871	; 0xa4000001
 340:	6f677900 	svcvs	0x00677900
 344:	63745f73 	cmnvs	r4, #460	; 0x1cc
 348:	696c5f62 	stmdbvs	ip!, {r1, r5, r6, r8, r9, sl, fp, ip, lr}^
 34c:	6d007473 	cfstrsvs	mvf7, [r0, #-460]	; 0xfffffe34
 350:	5f65646f 	svcpl	0x0065646f
 354:	5f660074 	svcpl	0x00660074
 358:	00736f70 	rsbseq	r6, r3, r0, ror pc
 35c:	74636f69 	strbtvc	r6, [r3], #-3945	; 0xfffff097
 360:	6779006c 	ldrbvs	r0, [r9, -ip, rrx]!
 364:	695f736f 	ldmdbvs	pc, {r0, r1, r2, r3, r5, r6, r8, r9, ip, sp, lr}^	; <UNPREDICTABLE>
 368:	7265746e 	rsbvc	r7, r5, #1845493760	; 0x6e000000
 36c:	74707572 	ldrbtvc	r7, [r0], #-1394	; 0xfffffa8e
 370:	73656e5f 	cmnvc	r5, #1520	; 0x5f0
 374:	6e750074 	mrcvs	0, 3, r0, cr5, cr4, {3}
 378:	646e6962 	strbtvs	r6, [lr], #-2402	; 0xfffff69e
 37c:	6f677900 	svcvs	0x00677900
 380:	63735f73 	cmnvs	r3, #460	; 0x1cc
 384:	73006568 	movwvc	r6, #1384	; 0x568
 388:	006b6565 	rsbeq	r6, fp, r5, ror #10
 38c:	736f6779 	cmnvc	pc, #31719424	; 0x1e40000
 390:	5f736f5f 	svcpl	0x00736f5f
 394:	696e7572 	stmdbvs	lr!, {r1, r4, r5, r6, r8, sl, ip, sp, lr}^
 398:	7300676e 	movwvc	r6, #1902	; 0x76e
 39c:	00636e79 	rsbeq	r6, r3, r9, ror lr
 3a0:	5f626374 	svcpl	0x00626374
 3a4:	6f697270 	svcvs	0x00697270
 3a8:	6261745f 	rsbvs	r7, r1, #1593835520	; 0x5f000000
 3ac:	6600656c 	strvs	r6, [r0], -ip, ror #10
 3b0:	6972705f 	ldmdbvs	r2!, {r0, r1, r2, r3, r4, r6, ip, sp, lr}^
 3b4:	5f660076 	svcpl	0x00660076
 3b8:	646f6e69 	strbtvs	r6, [pc], #-3689	; 3c0 <I_Bit+0x340>
 3bc:	696c0065 	stmdbvs	ip!, {r0, r2, r5, r6}^
 3c0:	645f7473 	ldrbvs	r7, [pc], #-1139	; 3c8 <I_Bit+0x348>
 3c4:	665f6c65 	ldrbvs	r6, [pc], -r5, ror #24
 3c8:	74737269 	ldrbtvc	r7, [r3], #-617	; 0xfffffd97
 3cc:	6f677900 	svcvs	0x00677900
 3d0:	65675f73 	strbvs	r5, [r7, #-3955]!	; 0xfffff08d
 3d4:	69745f74 	ldmdbvs	r4!, {r2, r4, r5, r6, r8, r9, sl, fp, ip, lr}^
 3d8:	6c006b63 	stcvs	11, cr6, [r0], {99}	; 0x63
 3dc:	6c657665 	stclvs	6, cr7, [r5], #-404	; 0xfffffe6c
 3e0:	6f677900 	svcvs	0x00677900
 3e4:	72705f73 	rsbsvc	r5, r0, #460	; 0x1cc
 3e8:	635f6f69 	cmpvs	pc, #420	; 0x1a4
 3ec:	65727275 	ldrbvs	r7, [r2, #-629]!	; 0xfffffd8b
 3f0:	7900746e 	stmdbvc	r0, {r1, r2, r3, r5, r6, sl, ip, sp, lr}
 3f4:	5f736f67 	svcpl	0x00736f67
 3f8:	65686373 	strbvs	r6, [r8, #-883]!	; 0xfffffc8d
 3fc:	77656e5f 			; <UNDEFINED> instruction: 0x77656e5f
 400:	2f2e2e00 	svccs	0x002e2e00
 404:	6b2f2e2e 	blvs	bcbcc4 <RT_IRQ_STACK_PGSZ+0xbcb4c4>
 408:	656e7265 	strbvs	r7, [lr, #-613]!	; 0xfffffd9b
 40c:	6f632f6c 	svcvs	0x00632f6c
 410:	632e6572 			; <UNDEFINED> instruction: 0x632e6572
 414:	65706f00 	ldrbvs	r6, [r0, #-3840]!	; 0xfffff100
 418:	6779006e 	ldrbvs	r0, [r9, -lr, rrx]!
 41c:	745f736f 	ldrbvc	r7, [pc], #-879	; 424 <SVC_Stack_Size+0x24>
 420:	006b6369 	rsbeq	r6, fp, r9, ror #6
 424:	736f6779 	cmnvc	pc, #31719424	; 0x1e40000
 428:	7361745f 	cmnvc	r1, #1593835520	; 0x5f000000
 42c:	65725f6b 	ldrbvs	r5, [r2, #-3947]!	; 0xfffff095
 430:	5f796461 	svcpl	0x00796461
 434:	00646461 	rsbeq	r6, r4, r1, ror #8
 438:	6b736174 	blvs	1cd8a10 <RT_IRQ_STACK_PGSZ+0x1cd8210>
 43c:	6165725f 	cmnvs	r5, pc, asr r2
 440:	765f7964 	ldrbvc	r7, [pc], -r4, ror #18
 444:	65756c61 	ldrbvs	r6, [r5, #-3169]!	; 0xfffff39f
 448:	6f677900 	svcvs	0x00677900
 44c:	6e695f73 	mcrvs	15, 3, r5, cr9, cr3, {3}
 450:	70007469 	andvc	r7, r0, r9, ror #8
 454:	00766572 	rsbseq	r6, r6, r2, ror r5
 458:	7473696c 	ldrbtvc	r6, [r3], #-2412	; 0xfffff694
 45c:	6464615f 	strbtvs	r6, [r4], #-351	; 0xfffffea1
 460:	6961745f 	stmdbvs	r1!, {r0, r1, r2, r3, r4, r6, sl, ip, sp, lr}^
 464:	6c63006c 	stclvs	0, cr0, [r3], #-432	; 0xfffffe50
 468:	6465736f 	strbtvs	r7, [r5], #-879	; 0xfffffc91
 46c:	66007269 	strvs	r7, [r0], -r9, ror #4
 470:	5f656c69 	svcpl	0x00656c69
 474:	7265706f 	rsbvc	r7, r5, #111	; 0x6f
 478:	6f697461 	svcvs	0x00697461
 47c:	7900736e 	stmdbvc	r0, {r1, r2, r3, r5, r6, r8, r9, ip, sp, lr}
 480:	5f736f67 	svcpl	0x00736f67
 484:	65746e69 	ldrbvs	r6, [r4, #-3689]!	; 0xfffff197
 488:	70757272 	rsbsvc	r7, r5, r2, ror r2
 48c:	656c5f74 	strbvs	r5, [ip, #-3956]!	; 0xfffff08c
 490:	00657661 	rsbeq	r7, r5, r1, ror #12
 494:	736f6779 	cmnvc	pc, #31719424	; 0x1e40000
 498:	746e695f 	strbtvc	r6, [lr], #-2399	; 0xfffff6a1
 49c:	75727265 	ldrbvc	r7, [r2, #-613]!	; 0xfffffd9b
 4a0:	655f7470 	ldrbvs	r7, [pc, #-1136]	; 38 <Mode_SYS+0x19>
 4a4:	7265746e 	rsbvc	r7, r5, #1845493760	; 0x6e000000
 4a8:	69727000 	ldmdbvs	r2!, {ip, sp, lr}^
 4ac:	656e006f 	strbvs	r0, [lr, #-111]!	; 0xffffff91
 4b0:	79007478 	stmdbvc	r0, {r3, r4, r5, r6, sl, ip, sp, lr}
 4b4:	5f736f67 	svcpl	0x00736f67
 4b8:	5f626374 	svcpl	0x00626374
 4bc:	61657263 	cmnvs	r5, r3, ror #4
 4c0:	69006574 	stmdbvs	r0, {r2, r4, r5, r6, r8, sl, sp, lr}
 4c4:	73706f5f 	cmnvc	r0, #380	; 0x17c
 4c8:	6f677900 	svcvs	0x00677900
 4cc:	64695f73 	strbtvs	r5, [r9], #-3955	; 0xfffff08d
 4d0:	745f656c 	ldrbvc	r6, [pc], #-1388	; 4d8 <SVC_Stack_Size+0xd8>
 4d4:	5f6b7361 	svcpl	0x006b7361
 4d8:	74696e69 	strbtvc	r6, [r9], #-3689	; 0xfffff197
 4dc:	6c646900 	stclvs	9, cr6, [r4], #-0
 4e0:	61745f65 	cmnvs	r4, r5, ror #30
 4e4:	635f6b73 	cmpvs	pc, #117760	; 0x1cc00
 4e8:	746e756f 	strbtvc	r7, [lr], #-1391	; 0xfffffa91
 4ec:	6c646900 	stclvs	9, cr6, [r4], #-0
 4f0:	61745f65 	cmnvs	r4, r5, ror #30
 4f4:	655f6b73 	ldrbvs	r6, [pc, #-2931]	; fffff989 <__bss_end+0x9fffc8e1>
 4f8:	7972746e 	ldmdbvc	r2!, {r1, r2, r3, r5, r6, sl, ip, sp, lr}^
 4fc:	6c646900 	stclvs	9, cr6, [r4], #-0
 500:	61745f65 	cmnvs	r4, r5, ror #30
 504:	735f6b73 	cmpvc	pc, #117760	; 0x1cc00
 508:	6b636174 	blvs	18d8ae0 <RT_IRQ_STACK_PGSZ+0x18d82e0>
 50c:	2f2e2e00 	svccs	0x002e2e00
 510:	6b2f2e2e 	blvs	bcbdd0 <RT_IRQ_STACK_PGSZ+0xbcb5d0>
 514:	656e7265 	strbvs	r7, [lr, #-613]!	; 0xfffffd9b
 518:	64692f6c 	strbtvs	r2, [r9], #-3948	; 0xfffff094
 51c:	632e656c 			; <UNDEFINED> instruction: 0x632e656c
 520:	2f2e2e00 	svccs	0x002e2e00
 524:	6b2f2e2e 	blvs	bcbde4 <RT_IRQ_STACK_PGSZ+0xbcb5e4>
 528:	656e7265 	strbvs	r7, [lr, #-613]!	; 0xfffffd9b
 52c:	6c732f6c 	ldclvs	15, cr2, [r3], #-432	; 0xfffffe50
 530:	2e706565 	cdpcs	5, 7, cr6, cr0, cr5, {3}
 534:	67790063 	ldrbvs	r0, [r9, -r3, rrx]!
 538:	735f736f 	cmpvc	pc, #-1140850687	; 0xbc000001
 53c:	7065656c 	rsbvc	r6, r5, ip, ror #10
 540:	6369745f 	cmnvs	r9, #1593835520	; 0x5f000000
 544:	6779006b 	ldrbvs	r0, [r9, -fp, rrx]!
 548:	735f736f 	cmpvc	pc, #-1140850687	; 0xbc000001
 54c:	695f6d65 	ldmdbvs	pc, {r0, r2, r5, r6, r8, sl, fp, sp, lr}^	; <UNPREDICTABLE>
 550:	0074696e 	rsbseq	r6, r4, lr, ror #18
 554:	5f6d6573 	svcpl	0x006d6573
 558:	65730073 	ldrbvs	r0, [r3, #-115]!	; 0xffffff8d
 55c:	00745f6d 	rsbseq	r5, r4, sp, ror #30
 560:	736f6779 	cmnvc	pc, #31719424	; 0x1e40000
 564:	6d65735f 	stclvs	3, cr7, [r5, #-380]!	; 0xfffffe84
 568:	6961775f 	stmdbvs	r1!, {r0, r1, r2, r3, r4, r6, r8, r9, sl, ip, sp, lr}^
 56c:	65730074 	ldrbvs	r0, [r3, #-116]!	; 0xffffff8c
 570:	756f636d 	strbvc	r6, [pc, #-877]!	; 20b <I_Bit+0x18b>
 574:	7900746e 	stmdbvc	r0, {r1, r2, r3, r5, r6, sl, ip, sp, lr}
 578:	5f736f67 	svcpl	0x00736f67
 57c:	5f6d6573 	svcpl	0x006d6573
 580:	74736f70 	ldrbtvc	r6, [r3], #-3952	; 0xfffff090
 584:	2f2e2e00 	svccs	0x002e2e00
 588:	692f2e2e 	stmdbvs	pc!, {r1, r2, r3, r5, r9, sl, fp, sp}	; <UNPREDICTABLE>
 58c:	732f6370 			; <UNDEFINED> instruction: 0x732f6370
 590:	632e6d65 			; <UNDEFINED> instruction: 0x632e6d65
 594:	6d657300 	stclvs	3, cr7, [r5, #-0]
 598:	76616d5f 			; <UNDEFINED> instruction: 0x76616d5f
 59c:	6b6e696c 	blvs	1b9ab54 <RT_IRQ_STACK_PGSZ+0x1b9a354>
 5a0:	65730031 	ldrbvs	r0, [r3, #-49]!	; 0xffffffcf
 5a4:	616d5f6d 	cmnvs	sp, sp, ror #30
 5a8:	6e696c76 	mcrvs	12, 3, r6, cr9, cr6, {3}
 5ac:	7400326b 	strvc	r3, [r0], #-619	; 0xfffffd95
 5b0:	316b7361 	cmncc	fp, r1, ror #6
 5b4:	616c665f 	cmnvs	ip, pc, asr r6
 5b8:	616d0067 	cmnvs	sp, r7, rrx
 5bc:	74006e69 	strvc	r6, [r0], #-3689	; 0xfffff197
 5c0:	316b7361 	cmncc	fp, r1, ror #6
 5c4:	746e655f 	strbtvc	r6, [lr], #-1375	; 0xfffffaa1
 5c8:	61007972 	tstvs	r0, r2, ror r9
 5cc:	00636772 	rsbeq	r6, r3, r2, ror r7
 5d0:	76677261 	strbtvc	r7, [r7], -r1, ror #4
 5d4:	73617400 	cmnvc	r1, #0, 8
 5d8:	665f326b 	ldrbvs	r3, [pc], -fp, ror #4
 5dc:	0067616c 	rsbeq	r6, r7, ip, ror #2
 5e0:	6b736174 	blvs	1cd8bb8 <RT_IRQ_STACK_PGSZ+0x1cd83b8>
 5e4:	6e655f32 	mcrvs	15, 3, r5, cr5, cr2, {1}
 5e8:	00797274 	rsbseq	r7, r9, r4, ror r2
 5ec:	6e69616d 	powvsez	f6, f1, #5.0
 5f0:	7400632e 	strvc	r6, [r0], #-814	; 0xfffffcd2
 5f4:	316b7361 	cmncc	fp, r1, ror #6
 5f8:	6174735f 	cmnvs	r4, pc, asr r3
 5fc:	74006b63 	strvc	r6, [r0], #-2915	; 0xfffff49d
 600:	326b7361 	rsbcc	r7, fp, #-2080374783	; 0x84000001
 604:	6174735f 	cmnvs	r4, pc, asr r3
 608:	Address 0x00000608 is out of bounds.


Disassembly of section .debug_frame:

00000000 <.debug_frame>:
   0:	0000000c 	andeq	r0, r0, ip
   4:	ffffffff 			; <UNDEFINED> instruction: 0xffffffff
   8:	7c020001 	stcvc	0, cr0, [r2], {1}
   c:	000d0c0e 	andeq	r0, sp, lr, lsl #24
  10:	0000001c 	andeq	r0, r0, ip, lsl r0
  14:	00000000 	andeq	r0, r0, r0
  18:	60000118 	andvs	r0, r0, r8, lsl r1
  1c:	000001d8 	ldrdeq	r0, [r0], -r8
  20:	8b040e42 	blhi	103930 <RT_IRQ_STACK_PGSZ+0x103130>
  24:	0b0d4201 	bleq	350830 <RT_IRQ_STACK_PGSZ+0x350030>
  28:	0d0de402 	cfstrseq	mvf14, [sp, #-8]
  2c:	000ecb42 	andeq	ip, lr, r2, asr #22
  30:	0000000c 	andeq	r0, r0, ip
  34:	ffffffff 			; <UNDEFINED> instruction: 0xffffffff
  38:	7c020001 	stcvc	0, cr0, [r2], {1}
  3c:	000d0c0e 	andeq	r0, sp, lr, lsl #24
  40:	0000001c 	andeq	r0, r0, ip, lsl r0
  44:	00000030 	andeq	r0, r0, r0, lsr r0
  48:	600002f0 	strdvs	r0, [r0], -r0	; <UNPREDICTABLE>
  4c:	00000038 	andeq	r0, r0, r8, lsr r0
  50:	8b040e42 	blhi	103960 <RT_IRQ_STACK_PGSZ+0x103160>
  54:	0b0d4201 	bleq	350860 <RT_IRQ_STACK_PGSZ+0x350060>
  58:	420d0d54 	andmi	r0, sp, #84, 26	; 0x1500
  5c:	00000ecb 	andeq	r0, r0, fp, asr #29
  60:	0000001c 	andeq	r0, r0, ip, lsl r0
  64:	00000030 	andeq	r0, r0, r0, lsr r0
  68:	60000328 	andvs	r0, r0, r8, lsr #6
  6c:	0000003c 	andeq	r0, r0, ip, lsr r0
  70:	8b040e42 	blhi	103980 <RT_IRQ_STACK_PGSZ+0x103180>
  74:	0b0d4201 	bleq	350880 <RT_IRQ_STACK_PGSZ+0x350080>
  78:	420d0d56 	andmi	r0, sp, #5504	; 0x1580
  7c:	00000ecb 	andeq	r0, r0, fp, asr #29
  80:	0000001c 	andeq	r0, r0, ip, lsl r0
  84:	00000030 	andeq	r0, r0, r0, lsr r0
  88:	60000364 	andvs	r0, r0, r4, ror #6
  8c:	00000058 	andeq	r0, r0, r8, asr r0
  90:	8b040e42 	blhi	1039a0 <RT_IRQ_STACK_PGSZ+0x1031a0>
  94:	0b0d4201 	bleq	3508a0 <RT_IRQ_STACK_PGSZ+0x3500a0>
  98:	420d0d64 	andmi	r0, sp, #100, 26	; 0x1900
  9c:	00000ecb 	andeq	r0, r0, fp, asr #29
  a0:	0000001c 	andeq	r0, r0, ip, lsl r0
  a4:	00000030 	andeq	r0, r0, r0, lsr r0
  a8:	600003bc 			; <UNDEFINED> instruction: 0x600003bc
  ac:	00000038 	andeq	r0, r0, r8, lsr r0
  b0:	8b080e42 	blhi	2039c0 <RT_IRQ_STACK_PGSZ+0x2031c0>
  b4:	42018e02 	andmi	r8, r1, #2, 28
  b8:	56040b0c 	strpl	r0, [r4], -ip, lsl #22
  bc:	00080d0c 	andeq	r0, r8, ip, lsl #26
  c0:	0000001c 	andeq	r0, r0, ip, lsl r0
  c4:	00000030 	andeq	r0, r0, r0, lsr r0
  c8:	600003f4 	strdvs	r0, [r0], -r4
  cc:	0000003c 	andeq	r0, r0, ip, lsr r0
  d0:	8b040e42 	blhi	1039e0 <RT_IRQ_STACK_PGSZ+0x1031e0>
  d4:	0b0d4201 	bleq	3508e0 <RT_IRQ_STACK_PGSZ+0x3500e0>
  d8:	420d0d56 	andmi	r0, sp, #5504	; 0x1580
  dc:	00000ecb 	andeq	r0, r0, fp, asr #29
  e0:	0000001c 	andeq	r0, r0, ip, lsl r0
  e4:	00000030 	andeq	r0, r0, r0, lsr r0
  e8:	60000430 	andvs	r0, r0, r0, lsr r4
  ec:	00000058 	andeq	r0, r0, r8, asr r0
  f0:	8b080e42 	blhi	203a00 <RT_IRQ_STACK_PGSZ+0x203200>
  f4:	42018e02 	andmi	r8, r1, #2, 28
  f8:	66040b0c 	strvs	r0, [r4], -ip, lsl #22
  fc:	00080d0c 	andeq	r0, r8, ip, lsl #26
 100:	0000001c 	andeq	r0, r0, ip, lsl r0
 104:	00000030 	andeq	r0, r0, r0, lsr r0
 108:	60000488 	andvs	r0, r0, r8, lsl #9
 10c:	00000040 	andeq	r0, r0, r0, asr #32
 110:	8b080e42 	blhi	203a20 <RT_IRQ_STACK_PGSZ+0x203220>
 114:	42018e02 	andmi	r8, r1, #2, 28
 118:	5a040b0c 	bpl	102d50 <RT_IRQ_STACK_PGSZ+0x102550>
 11c:	00080d0c 	andeq	r0, r8, ip, lsl #26
 120:	0000001c 	andeq	r0, r0, ip, lsl r0
 124:	00000030 	andeq	r0, r0, r0, lsr r0
 128:	600004c8 	andvs	r0, r0, r8, asr #9
 12c:	00000040 	andeq	r0, r0, r0, asr #32
 130:	8b080e42 	blhi	203a40 <RT_IRQ_STACK_PGSZ+0x203240>
 134:	42018e02 	andmi	r8, r1, #2, 28
 138:	5a040b0c 	bpl	102d70 <RT_IRQ_STACK_PGSZ+0x102570>
 13c:	00080d0c 	andeq	r0, r8, ip, lsl #26
 140:	0000001c 	andeq	r0, r0, ip, lsl r0
 144:	00000030 	andeq	r0, r0, r0, lsr r0
 148:	60000508 	andvs	r0, r0, r8, lsl #10
 14c:	000000d0 	ldrdeq	r0, [r0], -r0	; <UNPREDICTABLE>
 150:	8b080e42 	blhi	203a60 <RT_IRQ_STACK_PGSZ+0x203260>
 154:	42018e02 	andmi	r8, r1, #2, 28
 158:	02040b0c 	andeq	r0, r4, #12, 22	; 0x3000
 15c:	080d0c62 	stmdaeq	sp, {r1, r5, r6, sl, fp}
 160:	0000001c 	andeq	r0, r0, ip, lsl r0
 164:	00000030 	andeq	r0, r0, r0, lsr r0
 168:	600005d8 	ldrdvs	r0, [r0], -r8
 16c:	00000084 	andeq	r0, r0, r4, lsl #1
 170:	8b080e42 	blhi	203a80 <RT_IRQ_STACK_PGSZ+0x203280>
 174:	42018e02 	andmi	r8, r1, #2, 28
 178:	7c040b0c 	stcvc	11, cr0, [r4], {12}
 17c:	00080d0c 	andeq	r0, r8, ip, lsl #26
 180:	0000001c 	andeq	r0, r0, ip, lsl r0
 184:	00000030 	andeq	r0, r0, r0, lsr r0
 188:	6000065c 	andvs	r0, r0, ip, asr r6
 18c:	0000004c 	andeq	r0, r0, ip, asr #32
 190:	8b040e42 	blhi	103aa0 <RT_IRQ_STACK_PGSZ+0x1032a0>
 194:	0b0d4201 	bleq	3509a0 <RT_IRQ_STACK_PGSZ+0x3501a0>
 198:	420d0d5e 	andmi	r0, sp, #6016	; 0x1780
 19c:	00000ecb 	andeq	r0, r0, fp, asr #29
 1a0:	0000001c 	andeq	r0, r0, ip, lsl r0
 1a4:	00000030 	andeq	r0, r0, r0, lsr r0
 1a8:	600006a8 	andvs	r0, r0, r8, lsr #13
 1ac:	00000110 	andeq	r0, r0, r0, lsl r1
 1b0:	8b040e42 	blhi	103ac0 <RT_IRQ_STACK_PGSZ+0x1032c0>
 1b4:	0b0d4201 	bleq	3509c0 <RT_IRQ_STACK_PGSZ+0x3501c0>
 1b8:	0d0d8002 	stceq	0, cr8, [sp, #-8]
 1bc:	000ecb42 	andeq	ip, lr, r2, asr #22
 1c0:	0000001c 	andeq	r0, r0, ip, lsl r0
 1c4:	00000030 	andeq	r0, r0, r0, lsr r0
 1c8:	600007b8 			; <UNDEFINED> instruction: 0x600007b8
 1cc:	00000050 	andeq	r0, r0, r0, asr r0
 1d0:	8b040e42 	blhi	103ae0 <RT_IRQ_STACK_PGSZ+0x1032e0>
 1d4:	0b0d4201 	bleq	3509e0 <RT_IRQ_STACK_PGSZ+0x3501e0>
 1d8:	420d0d60 	andmi	r0, sp, #96, 26	; 0x1800
 1dc:	00000ecb 	andeq	r0, r0, fp, asr #29
 1e0:	0000001c 	andeq	r0, r0, ip, lsl r0
 1e4:	00000030 	andeq	r0, r0, r0, lsr r0
 1e8:	60000808 	andvs	r0, r0, r8, lsl #16
 1ec:	00000060 	andeq	r0, r0, r0, rrx
 1f0:	8b080e42 	blhi	203b00 <RT_IRQ_STACK_PGSZ+0x203300>
 1f4:	42018e02 	andmi	r8, r1, #2, 28
 1f8:	6a040b0c 	bvs	102e30 <RT_IRQ_STACK_PGSZ+0x102630>
 1fc:	00080d0c 	andeq	r0, r8, ip, lsl #26
 200:	0000001c 	andeq	r0, r0, ip, lsl r0
 204:	00000030 	andeq	r0, r0, r0, lsr r0
 208:	60000868 	andvs	r0, r0, r8, ror #16
 20c:	00000078 	andeq	r0, r0, r8, ror r0
 210:	8b080e42 	blhi	203b20 <RT_IRQ_STACK_PGSZ+0x203320>
 214:	42018e02 	andmi	r8, r1, #2, 28
 218:	76040b0c 	strvc	r0, [r4], -ip, lsl #22
 21c:	00080d0c 	andeq	r0, r8, ip, lsl #26
 220:	0000001c 	andeq	r0, r0, ip, lsl r0
 224:	00000030 	andeq	r0, r0, r0, lsr r0
 228:	600008e0 	andvs	r0, r0, r0, ror #17
 22c:	00000048 	andeq	r0, r0, r8, asr #32
 230:	8b080e42 	blhi	203b40 <RT_IRQ_STACK_PGSZ+0x203340>
 234:	42018e02 	andmi	r8, r1, #2, 28
 238:	5e040b0c 	vmlapl.f64	d0, d4, d12
 23c:	00080d0c 	andeq	r0, r8, ip, lsl #26
 240:	0000001c 	andeq	r0, r0, ip, lsl r0
 244:	00000030 	andeq	r0, r0, r0, lsr r0
 248:	60000928 	andvs	r0, r0, r8, lsr #18
 24c:	00000090 	muleq	r0, r0, r0
 250:	8b080e42 	blhi	203b60 <RT_IRQ_STACK_PGSZ+0x203360>
 254:	42018e02 	andmi	r8, r1, #2, 28
 258:	02040b0c 	andeq	r0, r4, #12, 22	; 0x3000
 25c:	080d0c42 	stmdaeq	sp, {r1, r6, sl, fp}
 260:	0000001c 	andeq	r0, r0, ip, lsl r0
 264:	00000030 	andeq	r0, r0, r0, lsr r0
 268:	600009b8 			; <UNDEFINED> instruction: 0x600009b8
 26c:	00000144 	andeq	r0, r0, r4, asr #2
 270:	8b080e42 	blhi	203b80 <RT_IRQ_STACK_PGSZ+0x203380>
 274:	42018e02 	andmi	r8, r1, #2, 28
 278:	02040b0c 	andeq	r0, r4, #12, 22	; 0x3000
 27c:	080d0c9c 	stmdaeq	sp, {r2, r3, r4, r7, sl, fp}
 280:	0000001c 	andeq	r0, r0, ip, lsl r0
 284:	00000030 	andeq	r0, r0, r0, lsr r0
 288:	60000afc 	strdvs	r0, [r0], -ip
 28c:	00000040 	andeq	r0, r0, r0, asr #32
 290:	8b080e42 	blhi	203ba0 <RT_IRQ_STACK_PGSZ+0x2033a0>
 294:	42018e02 	andmi	r8, r1, #2, 28
 298:	5a040b0c 	bpl	102ed0 <RT_IRQ_STACK_PGSZ+0x1026d0>
 29c:	00080d0c 	andeq	r0, r8, ip, lsl #26
 2a0:	00000018 	andeq	r0, r0, r8, lsl r0
 2a4:	00000030 	andeq	r0, r0, r0, lsr r0
 2a8:	60000b3c 	andvs	r0, r0, ip, lsr fp
 2ac:	00000084 	andeq	r0, r0, r4, lsl #1
 2b0:	8b080e42 	blhi	203bc0 <RT_IRQ_STACK_PGSZ+0x2033c0>
 2b4:	42018e02 	andmi	r8, r1, #2, 28
 2b8:	00040b0c 	andeq	r0, r4, ip, lsl #22
 2bc:	00000018 	andeq	r0, r0, r8, lsl r0
 2c0:	00000030 	andeq	r0, r0, r0, lsr r0
 2c4:	60000bc0 	andvs	r0, r0, r0, asr #23
 2c8:	0000002c 	andeq	r0, r0, ip, lsr #32
 2cc:	8b080e42 	blhi	203bdc <RT_IRQ_STACK_PGSZ+0x2033dc>
 2d0:	42018e02 	andmi	r8, r1, #2, 28
 2d4:	00040b0c 	andeq	r0, r4, ip, lsl #22
 2d8:	0000000c 	andeq	r0, r0, ip
 2dc:	ffffffff 			; <UNDEFINED> instruction: 0xffffffff
 2e0:	7c020001 	stcvc	0, cr0, [r2], {1}
 2e4:	000d0c0e 	andeq	r0, sp, lr, lsl #24
 2e8:	00000014 	andeq	r0, r0, r4, lsl r0
 2ec:	000002d8 	ldrdeq	r0, [r0], -r8
 2f0:	60000bec 	andvs	r0, r0, ip, ror #23
 2f4:	00000030 	andeq	r0, r0, r0, lsr r0
 2f8:	8b040e42 	blhi	103c08 <RT_IRQ_STACK_PGSZ+0x103408>
 2fc:	0b0d4201 	bleq	350b08 <RT_IRQ_STACK_PGSZ+0x350308>
 300:	00000018 	andeq	r0, r0, r8, lsl r0
 304:	000002d8 	ldrdeq	r0, [r0], -r8
 308:	60000c1c 	andvs	r0, r0, ip, lsl ip
 30c:	00000034 	andeq	r0, r0, r4, lsr r0
 310:	8b080e42 	blhi	203c20 <RT_IRQ_STACK_PGSZ+0x203420>
 314:	42018e02 	andmi	r8, r1, #2, 28
 318:	00040b0c 	andeq	r0, r4, ip, lsl #22
 31c:	0000000c 	andeq	r0, r0, ip
 320:	ffffffff 			; <UNDEFINED> instruction: 0xffffffff
 324:	7c020001 	stcvc	0, cr0, [r2], {1}
 328:	000d0c0e 	andeq	r0, sp, lr, lsl #24
 32c:	0000001c 	andeq	r0, r0, ip, lsl r0
 330:	0000031c 	andeq	r0, r0, ip, lsl r3
 334:	60000c50 	andvs	r0, r0, r0, asr ip
 338:	00000080 	andeq	r0, r0, r0, lsl #1
 33c:	8b080e42 	blhi	203c4c <RT_IRQ_STACK_PGSZ+0x20344c>
 340:	42018e02 	andmi	r8, r1, #2, 28
 344:	7a040b0c 	bvc	102f7c <RT_IRQ_STACK_PGSZ+0x10277c>
 348:	00080d0c 	andeq	r0, r8, ip, lsl #26
 34c:	0000000c 	andeq	r0, r0, ip
 350:	ffffffff 			; <UNDEFINED> instruction: 0xffffffff
 354:	7c020001 	stcvc	0, cr0, [r2], {1}
 358:	000d0c0e 	andeq	r0, sp, lr, lsl #24
 35c:	0000001c 	andeq	r0, r0, ip, lsl r0
 360:	0000034c 	andeq	r0, r0, ip, asr #6
 364:	60000cd0 	ldrdvs	r0, [r0], -r0	; <UNPREDICTABLE>
 368:	00000038 	andeq	r0, r0, r8, lsr r0
 36c:	8b040e42 	blhi	103c7c <RT_IRQ_STACK_PGSZ+0x10347c>
 370:	0b0d4201 	bleq	350b7c <RT_IRQ_STACK_PGSZ+0x35037c>
 374:	420d0d54 	andmi	r0, sp, #84, 26	; 0x1500
 378:	00000ecb 	andeq	r0, r0, fp, asr #29
 37c:	0000001c 	andeq	r0, r0, ip, lsl r0
 380:	0000034c 	andeq	r0, r0, ip, asr #6
 384:	60000d08 	andvs	r0, r0, r8, lsl #26
 388:	0000003c 	andeq	r0, r0, ip, lsr r0
 38c:	8b040e42 	blhi	103c9c <RT_IRQ_STACK_PGSZ+0x10349c>
 390:	0b0d4201 	bleq	350b9c <RT_IRQ_STACK_PGSZ+0x35039c>
 394:	420d0d56 	andmi	r0, sp, #5504	; 0x1580
 398:	00000ecb 	andeq	r0, r0, fp, asr #29
 39c:	0000001c 	andeq	r0, r0, ip, lsl r0
 3a0:	0000034c 	andeq	r0, r0, ip, asr #6
 3a4:	60000d44 	andvs	r0, r0, r4, asr #26
 3a8:	00000058 	andeq	r0, r0, r8, asr r0
 3ac:	8b040e42 	blhi	103cbc <RT_IRQ_STACK_PGSZ+0x1034bc>
 3b0:	0b0d4201 	bleq	350bbc <RT_IRQ_STACK_PGSZ+0x3503bc>
 3b4:	420d0d64 	andmi	r0, sp, #100, 26	; 0x1900
 3b8:	00000ecb 	andeq	r0, r0, fp, asr #29
 3bc:	0000001c 	andeq	r0, r0, ip, lsl r0
 3c0:	0000034c 	andeq	r0, r0, ip, asr #6
 3c4:	60000d9c 	mulvs	r0, ip, sp
 3c8:	00000038 	andeq	r0, r0, r8, lsr r0
 3cc:	8b080e42 	blhi	203cdc <RT_IRQ_STACK_PGSZ+0x2034dc>
 3d0:	42018e02 	andmi	r8, r1, #2, 28
 3d4:	56040b0c 	strpl	r0, [r4], -ip, lsl #22
 3d8:	00080d0c 	andeq	r0, r8, ip, lsl #26
 3dc:	0000001c 	andeq	r0, r0, ip, lsl r0
 3e0:	0000034c 	andeq	r0, r0, ip, asr #6
 3e4:	60000dd4 	ldrdvs	r0, [r0], -r4
 3e8:	0000003c 	andeq	r0, r0, ip, lsr r0
 3ec:	8b040e42 	blhi	103cfc <RT_IRQ_STACK_PGSZ+0x1034fc>
 3f0:	0b0d4201 	bleq	350bfc <RT_IRQ_STACK_PGSZ+0x3503fc>
 3f4:	420d0d56 	andmi	r0, sp, #5504	; 0x1580
 3f8:	00000ecb 	andeq	r0, r0, fp, asr #29
 3fc:	0000001c 	andeq	r0, r0, ip, lsl r0
 400:	0000034c 	andeq	r0, r0, ip, asr #6
 404:	60000e10 	andvs	r0, r0, r0, lsl lr
 408:	00000058 	andeq	r0, r0, r8, asr r0
 40c:	8b080e42 	blhi	203d1c <RT_IRQ_STACK_PGSZ+0x20351c>
 410:	42018e02 	andmi	r8, r1, #2, 28
 414:	66040b0c 	strvs	r0, [r4], -ip, lsl #22
 418:	00080d0c 	andeq	r0, r8, ip, lsl #26
 41c:	0000001c 	andeq	r0, r0, ip, lsl r0
 420:	0000034c 	andeq	r0, r0, ip, asr #6
 424:	60000e68 	andvs	r0, r0, r8, ror #28
 428:	00000040 	andeq	r0, r0, r0, asr #32
 42c:	8b080e42 	blhi	203d3c <RT_IRQ_STACK_PGSZ+0x20353c>
 430:	42018e02 	andmi	r8, r1, #2, 28
 434:	5a040b0c 	bpl	10306c <RT_IRQ_STACK_PGSZ+0x10286c>
 438:	00080d0c 	andeq	r0, r8, ip, lsl #26
 43c:	0000001c 	andeq	r0, r0, ip, lsl r0
 440:	0000034c 	andeq	r0, r0, ip, asr #6
 444:	60000ea8 	andvs	r0, r0, r8, lsr #29
 448:	00000040 	andeq	r0, r0, r0, asr #32
 44c:	8b080e42 	blhi	203d5c <RT_IRQ_STACK_PGSZ+0x20355c>
 450:	42018e02 	andmi	r8, r1, #2, 28
 454:	5a040b0c 	bpl	10308c <RT_IRQ_STACK_PGSZ+0x10288c>
 458:	00080d0c 	andeq	r0, r8, ip, lsl #26
 45c:	0000001c 	andeq	r0, r0, ip, lsl r0
 460:	0000034c 	andeq	r0, r0, ip, asr #6
 464:	60000ee8 	andvs	r0, r0, r8, ror #29
 468:	0000005c 	andeq	r0, r0, ip, asr r0
 46c:	8b080e42 	blhi	203d7c <RT_IRQ_STACK_PGSZ+0x20357c>
 470:	42018e02 	andmi	r8, r1, #2, 28
 474:	68040b0c 	stmdavs	r4, {r2, r3, r8, r9, fp}
 478:	00080d0c 	andeq	r0, r8, ip, lsl #26
 47c:	0000001c 	andeq	r0, r0, ip, lsl r0
 480:	0000034c 	andeq	r0, r0, ip, asr #6
 484:	60000f44 	andvs	r0, r0, r4, asr #30
 488:	000000f4 	strdeq	r0, [r0], -r4
 48c:	8b080e42 	blhi	203d9c <RT_IRQ_STACK_PGSZ+0x20359c>
 490:	42018e02 	andmi	r8, r1, #2, 28
 494:	02040b0c 	andeq	r0, r4, #12, 22	; 0x3000
 498:	080d0c74 	stmdaeq	sp, {r2, r4, r5, r6, sl, fp}
 49c:	0000001c 	andeq	r0, r0, ip, lsl r0
 4a0:	0000034c 	andeq	r0, r0, ip, asr #6
 4a4:	60001038 	andvs	r1, r0, r8, lsr r0
 4a8:	00000118 	andeq	r0, r0, r8, lsl r1
 4ac:	8b080e42 	blhi	203dbc <RT_IRQ_STACK_PGSZ+0x2035bc>
 4b0:	42018e02 	andmi	r8, r1, #2, 28
 4b4:	02040b0c 	andeq	r0, r4, #12, 22	; 0x3000
 4b8:	080d0c86 	stmdaeq	sp, {r1, r2, r7, sl, fp}
 4bc:	0000000c 	andeq	r0, r0, ip
 4c0:	ffffffff 			; <UNDEFINED> instruction: 0xffffffff
 4c4:	7c020001 	stcvc	0, cr0, [r2], {1}
 4c8:	000d0c0e 	andeq	r0, sp, lr, lsl #24
 4cc:	00000018 	andeq	r0, r0, r8, lsl r0
 4d0:	000004bc 			; <UNDEFINED> instruction: 0x000004bc
 4d4:	60001150 	andvs	r1, r0, r0, asr r1
 4d8:	0000004c 	andeq	r0, r0, ip, asr #32
 4dc:	8b080e42 	blhi	203dec <RT_IRQ_STACK_PGSZ+0x2035ec>
 4e0:	42018e02 	andmi	r8, r1, #2, 28
 4e4:	00040b0c 	andeq	r0, r4, ip, lsl #22
 4e8:	00000018 	andeq	r0, r0, r8, lsl r0
 4ec:	000004bc 			; <UNDEFINED> instruction: 0x000004bc
 4f0:	6000119c 	mulvs	r0, ip, r1
 4f4:	0000004c 	andeq	r0, r0, ip, asr #32
 4f8:	8b080e42 	blhi	203e08 <RT_IRQ_STACK_PGSZ+0x203608>
 4fc:	42018e02 	andmi	r8, r1, #2, 28
 500:	00040b0c 	andeq	r0, r4, ip, lsl #22
 504:	00000018 	andeq	r0, r0, r8, lsl r0
 508:	000004bc 			; <UNDEFINED> instruction: 0x000004bc
 50c:	600011e8 	andvs	r1, r0, r8, ror #3
 510:	00000078 	andeq	r0, r0, r8, ror r0
 514:	8b080e42 	blhi	203e24 <RT_IRQ_STACK_PGSZ+0x203624>
 518:	42018e02 	andmi	r8, r1, #2, 28
 51c:	00040b0c 	andeq	r0, r4, ip, lsl #22
